Certificate:
    Data:
        Version: 3 (0x2)
        Serial Number: 1 (0x1)
    Signature Algorithm: sha256WithRSAEncryption
        Issuer: C=US, ST=California, L=Sacramento, O=Bloombox LLC, OU=Authority Operations, CN=Root Authority/emailAddress=info@bloombox.io
        Validity
            Not Before: Jul 30 23:58:09 2018 GMT
            Not After : Jul 27 23:58:09 2028 GMT
        Subject: C=US, ST=California, L=Sacramento, O=Bloombox LLC, OU=MONGO-MEMBER, CN=mdb-instance-0/emailAddress=info@bloombox.io
        Subject Public Key Info:
            Public Key Algorithm: rsaEncryption
                Public-Key: (4096 bit)
                Modulus:
                    00:e1:57:7b:09:a1:92:db:f5:da:22:7b:5f:c7:b8:
                    97:42:bd:b6:e2:b7:0f:fd:f5:ba:61:67:82:6d:6b:
                    32:b6:30:b5:d2:4b:91:e1:bd:5c:90:d1:c5:48:0c:
                    67:6d:33:cb:69:0b:02:df:51:e8:6a:d6:b4:38:fa:
                    73:67:4e:93:e8:c3:03:65:04:aa:de:bd:b5:8e:9c:
                    76:cb:d4:f7:93:67:73:65:90:1f:8b:33:d7:e5:3f:
                    d4:97:d0:a8:dd:4a:27:36:5e:32:7e:23:e1:1b:ad:
                    6f:8a:0c:81:5b:25:b5:79:5b:45:43:d1:a4:14:c4:
                    07:85:b7:12:87:58:03:61:8c:d6:0c:cf:40:13:7d:
                    1a:56:93:cc:90:fc:36:3f:18:8b:37:0c:3f:a2:c6:
                    26:e0:2e:2e:77:67:b4:8e:32:11:8f:e3:fc:04:4d:
                    84:e9:68:ec:a1:2d:67:9a:d0:ad:3a:13:76:90:40:
                    d1:32:69:51:1e:e3:4b:19:0e:e8:07:15:d2:8f:30:
                    e0:58:51:26:5a:84:ff:15:83:48:d5:db:60:c3:b9:
                    bb:6d:c9:24:52:0f:63:1b:18:8a:e0:9d:59:7b:d4:
                    9c:9e:43:41:18:e5:70:d4:e5:b5:15:26:b4:bb:70:
                    e5:e8:7c:66:48:bf:a4:20:ee:89:6a:9e:47:b1:12:
                    3d:1e:89:ff:2c:09:db:0c:f2:a3:0d:26:29:b5:91:
                    d8:b1:05:02:d6:5c:88:82:8b:bc:19:6a:2a:f2:3b:
                    07:5e:ed:38:38:08:a0:fa:70:f1:8b:32:e8:32:f5:
                    64:17:4f:2f:59:fd:b7:04:40:fc:32:1e:45:9a:80:
                    9c:bb:16:f7:97:fc:f8:91:d5:0d:2c:99:d0:09:1b:
                    c9:c6:a4:bc:65:2a:67:df:fd:af:0e:c8:49:bf:3f:
                    ef:d6:7e:1b:8e:f8:65:26:d4:76:b8:23:92:11:f5:
                    91:17:8d:c8:07:64:93:ab:11:e1:35:0f:ed:a1:65:
                    14:b9:37:a6:a2:49:f5:c8:55:0c:51:d9:f1:49:b1:
                    8d:cc:36:76:01:08:0a:9d:0d:33:16:1f:c6:10:32:
                    35:b7:be:06:93:54:1f:4c:2f:a0:e1:86:77:09:0a:
                    fd:36:36:78:b1:bc:2c:f4:db:2f:d9:b6:c6:6c:ec:
                    e6:90:31:dd:97:68:c2:fd:ef:d1:f0:e8:51:2f:1f:
                    82:8d:3b:f3:17:15:a8:8b:b1:e4:3d:92:5c:2b:00:
                    fd:75:09:86:71:8a:6f:57:e4:56:d5:e3:00:9c:63:
                    27:56:58:f2:6c:54:b2:3c:f9:04:20:4e:99:a7:61:
                    b2:ea:e3:c3:b4:b9:aa:7d:a3:49:72:1a:56:b1:cb:
                    bc:63:8b
                Exponent: 65537 (0x10001)
        X509v3 extensions:
            X509v3 Basic Constraints: 
                CA:FALSE
            X509v3 Subject Key Identifier: 
                75:CC:AC:89:3C:F3:5D:A7:AD:95:BB:B3:00:BC:A5:08:79:9C:41:06
            X509v3 Authority Key Identifier: 
                keyid:1D:55:E4:9E:10:83:C6:01:CE:78:B5:58:BC:B2:3D:85:AD:88:59:66
                DirName:/C=US/ST=California/L=Sacramento/O=Bloombox LLC/OU=Authority Operations/CN=Root Authority/emailAddress=info@bloombox.io
                serial:CA:86:92:FB:2E:7F:BF:29

            X509v3 Extended Key Usage: 
                TLS Web Server Authentication, TLS Web Client Authentication
            X509v3 Key Usage: 
                Digital Signature, Key Encipherment
            X509v3 Subject Alternative Name: 
                DNS:localhost, DNS:mdb-instance-0
    Signature Algorithm: sha256WithRSAEncryption
         24:83:9b:24:ed:61:66:06:c2:d4:a5:9a:83:72:af:9e:26:dc:
         6c:fe:86:0a:b7:7e:87:2e:61:a2:27:6c:12:62:52:c9:93:91:
         88:5b:f4:d0:c8:2c:63:c1:23:fe:82:24:9a:3d:a1:9d:44:0d:
         6c:f7:11:5e:17:db:42:60:46:ca:10:58:05:3e:10:dd:df:29:
         49:05:9a:7d:12:57:65:d6:f0:61:5f:d9:6e:9e:ad:54:37:77:
         81:29:d3:fa:61:b9:ca:49:05:4a:70:63:98:ab:55:00:a9:c3:
         c4:9e:bd:da:02:01:d8:eb:a5:cc:73:6c:1f:02:c5:38:4e:54:
         c2:e4:b4:03:4f:30:cd:d2:ed:d9:d9:bb:be:4f:bf:37:3b:18:
         33:9f:e2:d7:8c:6d:2f:b8:73:8d:fa:05:ff:4b:22:f5:20:5d:
         3a:12:f9:ed:d9:19:5c:59:83:f3:6c:58:15:34:9f:9a:87:33:
         61:01:82:d7:c1:65:df:eb:98:47:5d:46:cf:cc:dd:8c:64:f0:
         7d:c0:cd:4a:4b:0f:1e:fc:08:3d:ef:39:53:8c:09:35:e2:c6:
         b9:9b:e0:ff:a0:12:f2:2d:35:3d:46:61:2f:fd:a8:9f:b6:f4:
         66:75:5b:6d:58:59:2f:58:5f:e1:30:02:1d:a7:88:42:ee:0a:
         7a:1c:4d:1a:a6:c5:92:ea:92:df:d3:69:e8:3a:06:59:3c:3b:
         77:49:f8:7c:49:01:d5:49:f7:bd:a7:a8:64:af:de:50:71:b6:
         30:f5:06:ab:72:df:28:47:5b:9e:c0:20:1d:c9:d3:90:df:b5:
         52:99:7f:8a:0a:60:7a:c0:5a:77:4b:c5:08:d1:62:64:fb:d2:
         b4:ed:9f:84:a2:e5:ec:96:7e:87:17:74:b2:17:05:93:2a:64:
         13:17:07:fc:bd:bf:09:9e:df:e0:77:2f:a9:56:3f:f3:24:25:
         ba:48:af:a5:be:89:4f:1a:a7:93:a4:bf:02:b9:3f:6b:09:61:
         8e:aa:91:1e:6b:17:c9:2f:2c:c2:00:00:a5:10:e6:19:79:22:
         1c:47:be:a4:41:50:30:f4:b0:85:ca:56:e0:bb:c7:45:0d:aa:
         73:9d:4e:8d:b6:fa:e4:2e:e9:04:e2:19:f8:6f:82:c2:35:32:
         73:fa:f1:f4:c3:00:8d:23:ad:2f:bc:f3:df:f7:6b:95:f2:b4:
         3f:89:d0:f1:bb:14:24:06:8a:ea:9f:d2:bc:38:ba:6e:93:75:
         de:b2:aa:c9:fc:94:66:e4:f0:0f:dc:90:d6:b7:cf:f2:a3:3f:
         4b:4c:bb:38:9b:41:40:e7:39:28:1c:d0:13:0c:20:31:41:43:
         7b:1a:6f:bf:32:a3:bf:4a
-----BEGIN CERTIFICATE-----
MIIHJDCCBQygAwIBAgIBATANBgkqhkiG9w0BAQsFADCBpzELMAkGA1UEBhMCVVMx
EzARBgNVBAgMCkNhbGlmb3JuaWExEzARBgNVBAcMClNhY3JhbWVudG8xFTATBgNV
BAoMDEJsb29tYm94IExMQzEdMBsGA1UECwwUQXV0aG9yaXR5IE9wZXJhdGlvbnMx
FzAVBgNVBAMMDlJvb3QgQXV0aG9yaXR5MR8wHQYJKoZIhvcNAQkBFhBpbmZvQGJs
b29tYm94LmlvMB4XDTE4MDczMDIzNTgwOVoXDTI4MDcyNzIzNTgwOVowgZ8xCzAJ
BgNVBAYTAlVTMRMwEQYDVQQIDApDYWxpZm9ybmlhMRMwEQYDVQQHDApTYWNyYW1l
bnRvMRUwEwYDVQQKDAxCbG9vbWJveCBMTEMxFTATBgNVBAsMDE1PTkdPLU1FTUJF
UjEXMBUGA1UEAwwObWRiLWluc3RhbmNlLTAxHzAdBgkqhkiG9w0BCQEWEGluZm9A
Ymxvb21ib3guaW8wggIiMA0GCSqGSIb3DQEBAQUAA4ICDwAwggIKAoICAQDhV3sJ
oZLb9doie1/HuJdCvbbitw/99bphZ4JtazK2MLXSS5HhvVyQ0cVIDGdtM8tpCwLf
Uehq1rQ4+nNnTpPowwNlBKrevbWOnHbL1PeTZ3NlkB+LM9flP9SX0KjdSic2XjJ+
I+EbrW+KDIFbJbV5W0VD0aQUxAeFtxKHWANhjNYMz0ATfRpWk8yQ/DY/GIs3DD+i
xibgLi53Z7SOMhGP4/wETYTpaOyhLWea0K06E3aQQNEyaVEe40sZDugHFdKPMOBY
USZahP8Vg0jV22DDubttySRSD2MbGIrgnVl71JyeQ0EY5XDU5bUVJrS7cOXofGZI
v6Qg7olqnkexEj0eif8sCdsM8qMNJim1kdixBQLWXIiCi7wZairyOwde7Tg4CKD6
cPGLMugy9WQXTy9Z/bcEQPwyHkWagJy7FveX/PiR1Q0smdAJG8nGpLxlKmff/a8O
yEm/P+/WfhuO+GUm1Ha4I5IR9ZEXjcgHZJOrEeE1D+2hZRS5N6aiSfXIVQxR2fFJ
sY3MNnYBCAqdDTMWH8YQMjW3vgaTVB9ML6DhhncJCv02NnixvCz02y/ZtsZs7OaQ
Md2XaML979Hw6FEvH4KNO/MXFaiLseQ9klwrAP11CYZxim9X5FbV4wCcYydWWPJs
VLI8+QQgTpmnYbLq48O0uap9o0lyGlaxy7xjiwIDAQABo4IBXzCCAVswCQYDVR0T
BAIwADAdBgNVHQ4EFgQUdcysiTzzXaetlbuzALylCHmcQQYwgdwGA1UdIwSB1DCB
0YAUHVXknhCDxgHOeLVYvLI9ha2IWWahga2kgaowgacxCzAJBgNVBAYTAlVTMRMw
EQYDVQQIDApDYWxpZm9ybmlhMRMwEQYDVQQHDApTYWNyYW1lbnRvMRUwEwYDVQQK
DAxCbG9vbWJveCBMTEMxHTAbBgNVBAsMFEF1dGhvcml0eSBPcGVyYXRpb25zMRcw
FQYDVQQDDA5Sb290IEF1dGhvcml0eTEfMB0GCSqGSIb3DQEJARYQaW5mb0BibG9v
bWJveC5pb4IJAMqGkvsuf78pMB0GA1UdJQQWMBQGCCsGAQUFBwMBBggrBgEFBQcD
AjALBgNVHQ8EBAMCBaAwJAYDVR0RBB0wG4IJbG9jYWxob3N0gg5tZGItaW5zdGFu
Y2UtMDANBgkqhkiG9w0BAQsFAAOCAgEAJIObJO1hZgbC1KWag3KvnibcbP6GCrd+
hy5hoidsEmJSyZORiFv00MgsY8Ej/oIkmj2hnUQNbPcRXhfbQmBGyhBYBT4Q3d8p
SQWafRJXZdbwYV/Zbp6tVDd3gSnT+mG5ykkFSnBjmKtVAKnDxJ692gIB2OulzHNs
HwLFOE5UwuS0A08wzdLt2dm7vk+/NzsYM5/i14xtL7hzjfoF/0si9SBdOhL57dkZ
XFmD82xYFTSfmoczYQGC18Fl3+uYR11Gz8zdjGTwfcDNSksPHvwIPe85U4wJNeLG
uZvg/6AS8i01PUZhL/2on7b0ZnVbbVhZL1hf4TACHaeIQu4KehxNGqbFkuqS39Np
6DoGWTw7d0n4fEkB1Un3vaeoZK/eUHG2MPUGq3LfKEdbnsAgHcnTkN+1Upl/igpg
esBad0vFCNFiZPvStO2fhKLl7JZ+hxd0shcFkypkExcH/L2/CZ7f4HcvqVY/8yQl
ukivpb6JTxqnk6S/Ark/awlhjqqRHmsXyS8swgAApRDmGXkiHEe+pEFQMPSwhcpW
4LvHRQ2qc51Ojbb65C7pBOIZ+G+CwjUyc/rx9MMAjSOtL7zz3/drlfK0P4nQ8bsU
JAaK6p/SvDi6bpN13rKqyfyUZuTwD9yQ1rfP8qM/S0y7OJtBQOc5KBzQEwwgMUFD
expvvzKjv0o=
-----END CERTIFICATE-----
-----BEGIN PRIVATE KEY-----
MIIJQwIBADANBgkqhkiG9w0BAQEFAASCCS0wggkpAgEAAoICAQDhV3sJoZLb9doi
e1/HuJdCvbbitw/99bphZ4JtazK2MLXSS5HhvVyQ0cVIDGdtM8tpCwLfUehq1rQ4
+nNnTpPowwNlBKrevbWOnHbL1PeTZ3NlkB+LM9flP9SX0KjdSic2XjJ+I+EbrW+K
DIFbJbV5W0VD0aQUxAeFtxKHWANhjNYMz0ATfRpWk8yQ/DY/GIs3DD+ixibgLi53
Z7SOMhGP4/wETYTpaOyhLWea0K06E3aQQNEyaVEe40sZDugHFdKPMOBYUSZahP8V
g0jV22DDubttySRSD2MbGIrgnVl71JyeQ0EY5XDU5bUVJrS7cOXofGZIv6Qg7olq
nkexEj0eif8sCdsM8qMNJim1kdixBQLWXIiCi7wZairyOwde7Tg4CKD6cPGLMugy
9WQXTy9Z/bcEQPwyHkWagJy7FveX/PiR1Q0smdAJG8nGpLxlKmff/a8OyEm/P+/W
fhuO+GUm1Ha4I5IR9ZEXjcgHZJOrEeE1D+2hZRS5N6aiSfXIVQxR2fFJsY3MNnYB
CAqdDTMWH8YQMjW3vgaTVB9ML6DhhncJCv02NnixvCz02y/ZtsZs7OaQMd2XaML9
79Hw6FEvH4KNO/MXFaiLseQ9klwrAP11CYZxim9X5FbV4wCcYydWWPJsVLI8+QQg
TpmnYbLq48O0uap9o0lyGlaxy7xjiwIDAQABAoICACL36lXyRtHvcuxK7PAXSxHG
Uu0Xr1mfmk6nO2wzaGkxYeXCaF75fbXTd6PYmOwvT297j/SLx19c9hapduMfJIDI
UmyIruNl2RjKWv0CjXDIavXlyZ9WajhfEWSFss60RSWAtKEyfCpJXbe0fRZh4al1
amg9zhKS4P/1CuEJ3Wxz6HuQZccgcMfio6oUGW7tJh1ivzVJPpsnT3qkEzbFukfz
/xXD2c5GxAG3BA7YNyl9/7Ye+Nez1CzQ5MR8tbDzx/sEgKvz29nMLbFu8AyPwJJe
7iD5R7OcQ6rewh5dDJfUxIEiuqVcZYgEJXekzAMSX/sV4uGDK7sYiSaMbV+jDuy1
vO90ODvQq/mXkQGUAgEkd3odCCM9Q3R0q4RqJKn7/o6Y3+jZo+Q80QfumQKOM9wV
YvLCmXpxrQLsugckj+DDN15DUEubiKb4TuGp9uqIwdPdcPwvh2INZlW+wUuU0bBL
H5ZYsSuVOMrMiZIQcUb2EXG97iSpPHpO/2OMCc02ES91hWPhK3W0tQIR800Bh3Wn
nVCNKftmd0AhZ7Mxiiiugycue59NfsBtZiQhbgmLX5oppwH15+IIu494Zee3kV8F
HtRXXt5Js6BUar4ght3t1xUib7IyNBQ5FyhUr5TusL9eXnKixxr653Jq5Jt7pvSl
izg5RBhM2Jy9RRXtOY3hAoIBAQDy9z01uOac3Wd9qH1GsOUI60IHICzcK/V2i3oV
ddhtwT1d60GbvfFvXmLT8RInu9sEuB9WstcYkIcDm7nBEesuuXbJonIuBZUf1Es0
hge1xhQNFxxVOqAVWHNdzD0WZDihrgpfvv3N4ZBnp+uTlODnD+XeSyXvwN4KLibl
JIo0Z3YzLsKC5Cj5EWtz++5vRYaQTy1bCpfn+3FrVO2QMmSmconaZ0QVXXlzh0kM
ojDgtQBr7VXA+0I6vGNTCNHBFOQxWQtwHiPnaUPaCNMeg0ZQrjeQYnx5/kpfMDf3
vbvLp2MYpjsftzr/ODFTq988lj/UDrJ0DFG1NvmsgjPUCdoDAoIBAQDtbjPFY/Lc
TAJNkXPGW6w0qdCITJaYL5ZheXuHQmGUPkbaEikpdYETzilZjy8PbTIduI9Kid7Y
Nb2bltUrOt/TuxDog6z7xMBh6Ni0agFvSVOI9sEmS4uWhPuXWPo7FLANogceZ+Od
B0b6HYaldtM+5QyN0VZ4kj54MGAfKE5+H4IfKWVwBqbPX3rfL8jTR/L2i3kBSwdB
w3pMEsy+nGVl1iM4XmvvHPvd9B6Aaj443WEx9EEDVtSiu9Z5AbSjaDp0lbXL89HJ
wy53+Y7rimUzFALItrHOlaRsJTjIEqg/9ZpdmkAtvMnXgGJPYWmxXBglAYmve8wm
1l60xPS4ut3ZAoIBAQDQjuo78zwB6wurEbZ3t+Dihw9mjnfzhshtucxSH5ZooDfN
JuRqi+Fzd9HdnFG5Scf3hRVhlqKMs4Mx1brdwEPhF9KfwpHAb4pSiCkGLQbxQdZ0
ZiIsBubja8mb+nV1gxIZtwuwpIG4+Ka8U6gkRufHcB4hcuBdrXDrzDIXAAaidS1B
QiI1uSRyqEFUji1d1pBrz4tfWviKaYwyVfSWkqtTNX6fu4T10gcu5DIQZikOulBi
VJgHz6ZKROv9mtRyqTw4H/dxhm3LdtCHmIug5Y62MtX/Wor/LQkqLHnebz+E0Wp+
/jJCR0adTd8Js78sgszHetY0R17b7xTiv+E9YjeBAoIBAEqGi9OKkuGZLiPg4wFB
JyWEpAMUXzS3wzEna6HCMVTR03WBu8/apUBtNsd4zSG/ebqggsG30u30uGZNCu49
1aHlFuKU6khAss5IwzSmDXs7/e+A3JHDprYBWeNgt3KyBKzSzf86RtS0QxAhEnF/
gcE9LhqZudWwudEKBjHhefnWtAZJ/SATxmpTIwNJQXUoIVhH4RyJy2ZWEF4ujHvM
JXu4omeAI8rzQw+hH63ZK1y4CFkgvQNqTuYhpaln4qZkAe00TNMO3ivBiyV3fOfs
EeXdgx4zUk5w5CJZ8J/EU3F4CxMUZs60cnqlPraB8iYMrTt4Zxpg9my+Xw3IwLP3
W8kCggEBAPDtiJ8CWfbp7nzgVpHJHv/v26SkaCxtKMjbbB+3aS0FA2ZDyCwuCqbs
ZS0/5/nTha3YBFN7I3dqspx2HmndiDnlpmkSfkxcJJRopXaDrCun1flbQkrV4TZV
UTDT56HVvCouxdtST1a2CRyJwScERcDzgDiBcHFL5Si3zLCc+e2qwmUi+zRX6VAC
kcnZ7Z30ChmkBYXD7Et0rfiNSdo2kXdqbCyQU1R7RmiBCliTX0Xr5IfMDwzfgLPk
wJPLDaq8mKPhMhK16G9JfvhniwwUGTcbetyWfV7jAsXeCCBAGBxw6LCFxKoI+R6y
pivzNMhiZjWyj7ncTT4DGiFN0dVNRbA=
-----END PRIVATE KEY-----
