Certificate:
    Data:
        Version: 3 (0x2)
        Serial Number: 2 (0x2)
    Signature Algorithm: sha256WithRSAEncryption
        Issuer: C=US, ST=California, L=Sacramento, O=Bloombox LLC, OU=Authority Operations, CN=Root Authority/emailAddress=info@bloombox.io
        Validity
            Not Before: Jul 31 18:24:20 2018 GMT
            Not After : Jul 28 18:24:20 2028 GMT
        Subject: C=US, ST=California, L=Sacramento, O=Bloombox LLC, OU=MONGO-CLIENT, CN=bdb-instance-0/emailAddress=dev@bigchaindb.com
        Subject Public Key Info:
            Public Key Algorithm: rsaEncryption
                Public-Key: (4096 bit)
                Modulus:
                    00:c1:99:a8:fd:9c:98:e1:97:8f:58:89:49:e0:d9:
                    37:e9:f1:4a:1b:30:48:f7:a1:7b:d4:4d:ad:50:b5:
                    2c:04:a3:27:03:64:a5:e5:48:d8:06:0d:37:49:d0:
                    b1:1f:f2:b1:81:0f:1f:a4:43:4c:31:11:78:69:a1:
                    97:cb:0b:d8:0b:b7:d9:9b:8e:2f:69:59:b7:4f:39:
                    ee:cd:41:f7:4f:a6:8e:cf:8c:0b:8b:6a:80:7a:84:
                    f1:48:cd:1f:60:1d:df:e7:a4:d0:d3:98:67:84:bc:
                    6b:fa:61:07:84:81:2a:80:f7:a0:39:2d:01:7b:64:
                    f2:40:21:4d:6e:86:cd:c2:7f:31:3b:d4:ec:05:49:
                    83:19:22:e9:9d:03:c3:03:c1:41:6d:96:79:0a:b3:
                    b5:37:45:e7:4a:39:d0:76:3b:c4:7f:f0:57:66:e3:
                    7f:4b:38:5a:ec:ec:b9:51:51:1f:1d:cd:03:eb:39:
                    bf:a1:93:fe:19:8e:5a:a2:51:75:d9:54:c1:75:ba:
                    87:20:d1:8a:a0:59:7d:6f:2d:b8:0d:34:bc:0c:6a:
                    9b:54:0c:00:38:76:01:96:16:f9:5e:46:3b:92:d1:
                    55:cf:e5:88:5d:f4:96:55:e7:71:39:1b:c3:17:a6:
                    f3:88:e5:be:e4:80:22:b6:68:8e:20:39:2a:7c:4f:
                    59:9b:c8:5e:e7:30:b7:b6:11:ed:b6:38:e5:f9:22:
                    56:0a:e5:af:00:fe:f3:4d:03:13:e4:a2:7e:81:b1:
                    7e:c9:c8:e1:48:27:c0:c1:d4:0e:31:1c:03:da:5f:
                    c2:e9:7b:36:73:a0:ca:e6:52:da:d1:d9:8e:1b:70:
                    bd:fa:91:e5:99:22:c8:9c:59:ca:9e:3a:ce:2e:aa:
                    66:48:bf:57:0e:31:22:fa:f7:10:48:d1:c3:97:e1:
                    0f:4a:62:eb:b3:17:2a:e2:d1:31:4c:3d:d1:e9:6c:
                    fa:0c:15:91:b9:7f:02:ed:08:fe:de:53:a6:7e:94:
                    44:d9:28:e6:94:93:41:a3:64:14:8f:80:4b:62:74:
                    b9:65:85:a8:6b:93:76:cd:3c:c0:f9:81:5b:cf:c7:
                    84:f2:38:bb:c4:b6:ed:ff:b3:c9:07:dc:cb:55:88:
                    35:b6:3e:ae:26:1a:d9:50:32:da:5b:3e:50:13:8e:
                    02:5f:49:a1:74:12:8a:4b:69:90:d2:c9:ae:26:0f:
                    9a:57:0a:7c:c0:1b:90:b6:f3:53:d4:94:97:ad:0f:
                    93:5f:2f:42:cb:17:3c:9d:a1:64:04:e4:93:4c:97:
                    9d:50:49:83:94:4f:37:be:2e:e1:28:7d:01:c9:ac:
                    65:c3:35:f1:cd:24:d9:bc:76:07:94:62:de:1b:74:
                    fd:09:ed
                Exponent: 65537 (0x10001)
        X509v3 extensions:
            X509v3 Basic Constraints: 
                CA:FALSE
            X509v3 Subject Key Identifier: 
                43:0B:30:E6:36:50:3C:EA:AF:60:32:E1:D0:67:19:09:FC:C9:EC:14
            X509v3 Authority Key Identifier: 
                keyid:6A:1D:5C:42:62:3B:FD:38:0A:6A:F8:D0:40:81:08:03:32:0B:24:4E
                DirName:/C=US/ST=California/L=Sacramento/O=Bloombox LLC/OU=Authority Operations/CN=Root Authority/emailAddress=info@bloombox.io
                serial:EF:90:FE:D6:13:23:4F:A1

            X509v3 Extended Key Usage: 
                TLS Web Client Authentication
            X509v3 Key Usage: 
                Digital Signature
    Signature Algorithm: sha256WithRSAEncryption
         e3:0f:55:53:ed:fa:27:9c:2a:2d:06:79:5e:fe:fe:ce:c0:b7:
         6f:38:d0:15:bf:c4:8d:0b:e5:2b:93:49:fa:8e:44:59:22:83:
         17:17:d9:e4:cd:2e:f2:43:61:71:c7:69:43:18:ac:00:85:45:
         1c:19:41:dd:e3:99:2d:4f:82:b4:5a:ec:d4:09:71:97:1f:c5:
         cd:b0:04:0a:4c:3c:3e:23:dd:27:4d:0a:be:0f:85:0d:dc:b4:
         5f:af:26:be:1b:6b:be:f4:a4:b8:5b:88:a7:51:a4:36:1a:97:
         b2:4c:fe:6b:88:77:44:4e:96:51:cd:3b:3e:75:50:1f:93:bf:
         8b:c5:09:d7:79:a2:93:54:a4:a7:80:86:19:22:48:6f:19:a6:
         d3:6e:9c:4e:6e:8a:9a:ac:1e:47:c4:e6:3c:ff:48:47:ac:4d:
         22:6a:44:d0:0a:42:56:39:c2:b2:fa:3d:7b:51:6a:6d:06:72:
         7a:9d:f6:62:8c:79:bb:1a:d3:64:c2:ad:7e:33:bd:9c:32:55:
         d5:6a:3c:56:50:6d:64:8a:9b:66:0a:3b:5f:20:57:bc:fd:b3:
         8e:70:31:ac:90:a9:13:3e:72:b3:dc:b0:35:0b:58:d0:df:e5:
         19:2d:14:b7:a1:60:fa:87:3a:8c:5b:f2:44:92:1c:ff:7b:7f:
         c0:4e:12:43:76:b5:c7:1c:a6:df:66:d3:03:36:59:45:78:d8:
         93:d0:9c:c2:2a:b0:9b:18:7c:85:81:4a:3e:24:de:f8:06:e2:
         b9:4e:07:2b:78:2e:48:ac:35:3c:02:f7:80:75:d2:ce:8f:20:
         a9:af:d9:ae:d1:00:dc:1b:4f:3c:07:1f:23:e6:19:d5:80:d3:
         b8:1d:8b:4d:27:e6:f0:6d:17:e7:bc:07:eb:9d:a6:3e:3e:48:
         e6:97:3d:ae:38:fd:8f:0e:80:c0:0c:a4:65:3a:af:20:fa:92:
         17:15:b2:37:c2:a4:75:24:08:65:f0:57:a7:49:33:72:b0:cc:
         2a:56:6f:b1:31:c7:d7:ea:e9:21:85:a1:87:40:57:30:76:09:
         9b:ac:24:54:cb:cf:da:fa:b6:c6:41:36:58:db:f8:e8:8a:3e:
         49:84:e7:62:7b:b6:d3:08:ed:72:0a:8b:f1:5a:b7:ca:1a:da:
         5f:28:50:e1:ad:8f:81:56:97:e8:76:f1:2b:86:f6:43:5d:9e:
         92:7d:40:62:98:f2:59:48:80:d9:99:9e:98:37:81:ee:32:0e:
         0b:e8:91:9e:c2:1b:a2:00:7a:4c:8a:1f:e9:37:29:94:93:58:
         5a:4f:6b:ed:15:26:b1:99:64:e9:34:c5:98:a9:4a:2b:39:20:
         02:3b:9e:8c:73:57:be:8d
-----BEGIN CERTIFICATE-----
MIIG9jCCBN6gAwIBAgIBAjANBgkqhkiG9w0BAQsFADCBpzELMAkGA1UEBhMCVVMx
EzARBgNVBAgMCkNhbGlmb3JuaWExEzARBgNVBAcMClNhY3JhbWVudG8xFTATBgNV
BAoMDEJsb29tYm94IExMQzEdMBsGA1UECwwUQXV0aG9yaXR5IE9wZXJhdGlvbnMx
FzAVBgNVBAMMDlJvb3QgQXV0aG9yaXR5MR8wHQYJKoZIhvcNAQkBFhBpbmZvQGJs
b29tYm94LmlvMB4XDTE4MDczMTE4MjQyMFoXDTI4MDcyODE4MjQyMFowgaExCzAJ
BgNVBAYTAlVTMRMwEQYDVQQIDApDYWxpZm9ybmlhMRMwEQYDVQQHDApTYWNyYW1l
bnRvMRUwEwYDVQQKDAxCbG9vbWJveCBMTEMxFTATBgNVBAsMDE1PTkdPLUNMSUVO
VDEXMBUGA1UEAwwOYmRiLWluc3RhbmNlLTAxITAfBgkqhkiG9w0BCQEWEmRldkBi
aWdjaGFpbmRiLmNvbTCCAiIwDQYJKoZIhvcNAQEBBQADggIPADCCAgoCggIBAMGZ
qP2cmOGXj1iJSeDZN+nxShswSPehe9RNrVC1LASjJwNkpeVI2AYNN0nQsR/ysYEP
H6RDTDEReGmhl8sL2Au32ZuOL2lZt0857s1B90+mjs+MC4tqgHqE8UjNH2Ad3+ek
0NOYZ4S8a/phB4SBKoD3oDktAXtk8kAhTW6GzcJ/MTvU7AVJgxki6Z0DwwPBQW2W
eQqztTdF50o50HY7xH/wV2bjf0s4WuzsuVFRHx3NA+s5v6GT/hmOWqJRddlUwXW6
hyDRiqBZfW8tuA00vAxqm1QMADh2AZYW+V5GO5LRVc/liF30llXncTkbwxem84jl
vuSAIrZojiA5KnxPWZvIXucwt7YR7bY45fkiVgrlrwD+800DE+SifoGxfsnI4Ugn
wMHUDjEcA9pfwul7NnOgyuZS2tHZjhtwvfqR5ZkiyJxZyp46zi6qZki/Vw4xIvr3
EEjRw5fhD0pi67MXKuLRMUw90els+gwVkbl/Au0I/t5Tpn6URNko5pSTQaNkFI+A
S2J0uWWFqGuTds08wPmBW8/HhPI4u8S27f+zyQfcy1WINbY+riYa2VAy2ls+UBOO
Al9JoXQSiktpkNLJriYPmlcKfMAbkLbzU9SUl60Pk18vQssXPJ2hZATkk0yXnVBJ
g5RPN74u4Sh9AcmsZcM18c0k2bx2B5Ri3ht0/QntAgMBAAGjggEvMIIBKzAJBgNV
HRMEAjAAMB0GA1UdDgQWBBRDCzDmNlA86q9gMuHQZxkJ/MnsFDCB3AYDVR0jBIHU
MIHRgBRqHVxCYjv9OApq+NBAgQgDMgskTqGBraSBqjCBpzELMAkGA1UEBhMCVVMx
EzARBgNVBAgMCkNhbGlmb3JuaWExEzARBgNVBAcMClNhY3JhbWVudG8xFTATBgNV
BAoMDEJsb29tYm94IExMQzEdMBsGA1UECwwUQXV0aG9yaXR5IE9wZXJhdGlvbnMx
FzAVBgNVBAMMDlJvb3QgQXV0aG9yaXR5MR8wHQYJKoZIhvcNAQkBFhBpbmZvQGJs
b29tYm94LmlvggkA75D+1hMjT6EwEwYDVR0lBAwwCgYIKwYBBQUHAwIwCwYDVR0P
BAQDAgeAMA0GCSqGSIb3DQEBCwUAA4ICAQDjD1VT7fonnCotBnle/v7OwLdvONAV
v8SNC+Urk0n6jkRZIoMXF9nkzS7yQ2Fxx2lDGKwAhUUcGUHd45ktT4K0WuzUCXGX
H8XNsAQKTDw+I90nTQq+D4UN3LRfrya+G2u+9KS4W4inUaQ2GpeyTP5riHdETpZR
zTs+dVAfk7+LxQnXeaKTVKSngIYZIkhvGabTbpxOboqarB5HxOY8/0hHrE0iakTQ
CkJWOcKy+j17UWptBnJ6nfZijHm7GtNkwq1+M72cMlXVajxWUG1kiptmCjtfIFe8
/bOOcDGskKkTPnKz3LA1C1jQ3+UZLRS3oWD6hzqMW/JEkhz/e3/AThJDdrXHHKbf
ZtMDNllFeNiT0JzCKrCbGHyFgUo+JN74BuK5TgcreC5IrDU8AveAddLOjyCpr9mu
0QDcG088Bx8j5hnVgNO4HYtNJ+bwbRfnvAfrnaY+Pkjmlz2uOP2PDoDADKRlOq8g
+pIXFbI3wqR1JAhl8FenSTNysMwqVm+xMcfX6ukhhaGHQFcwdgmbrCRUy8/a+rbG
QTZY2/joij5JhOdie7bTCO1yCovxWrfKGtpfKFDhrY+BVpfodvErhvZDXZ6SfUBi
mPJZSIDZmZ6YN4HuMg4L6JGewhuiAHpMih/pNymUk1haT2vtFSaxmWTpNMWYqUor
OSACO56Mc1e+jQ==
-----END CERTIFICATE-----
-----BEGIN PRIVATE KEY-----
MIIJRAIBADANBgkqhkiG9w0BAQEFAASCCS4wggkqAgEAAoICAQDBmaj9nJjhl49Y
iUng2Tfp8UobMEj3oXvUTa1QtSwEoycDZKXlSNgGDTdJ0LEf8rGBDx+kQ0wxEXhp
oZfLC9gLt9mbji9pWbdPOe7NQfdPpo7PjAuLaoB6hPFIzR9gHd/npNDTmGeEvGv6
YQeEgSqA96A5LQF7ZPJAIU1uhs3CfzE71OwFSYMZIumdA8MDwUFtlnkKs7U3RedK
OdB2O8R/8Fdm439LOFrs7LlRUR8dzQPrOb+hk/4ZjlqiUXXZVMF1uocg0YqgWX1v
LbgNNLwMaptUDAA4dgGWFvleRjuS0VXP5Yhd9JZV53E5G8MXpvOI5b7kgCK2aI4g
OSp8T1mbyF7nMLe2Ee22OOX5IlYK5a8A/vNNAxPkon6BsX7JyOFIJ8DB1A4xHAPa
X8LpezZzoMrmUtrR2Y4bcL36keWZIsicWcqeOs4uqmZIv1cOMSL69xBI0cOX4Q9K
YuuzFyri0TFMPdHpbPoMFZG5fwLtCP7eU6Z+lETZKOaUk0GjZBSPgEtidLllhahr
k3bNPMD5gVvPx4TyOLvEtu3/s8kH3MtViDW2Pq4mGtlQMtpbPlATjgJfSaF0EopL
aZDSya4mD5pXCnzAG5C281PUlJetD5NfL0LLFzydoWQE5JNMl51QSYOUTze+LuEo
fQHJrGXDNfHNJNm8dgeUYt4bdP0J7QIDAQABAoICAEaTUKKberQKfywkaDU6moKC
/qPot0DmsnCTnJHmadSK8YbwIvXx1yZlnPkgxeFCpOjKbZuBGP5uQvom+WIAwFKN
RBvL+oaqOQP9t4tF9/UmX7tTb0X0nj+LxTXn6P8uBNi6IZJxZZNi6O4OfyITwD3h
h5wwRvEHvLQaL9MR+2Ji4bzRAvVudgcszgL6QxZUVhiwGRIIrxAmQImzh8YCRcDq
CcKtPlNaiPMD3Q7CxtgjS8FtfOlXPPNuDKZNkeuXVSsow2f4W1PXK73i6cyOo9rW
5ib+dPogMrXXTDLM4ZzFCUZPg6XUqxVH2OObtkQiDXejYTKFb6IVfXJLxKwqdRyM
/TsJ0z8dlhhpI9aVto3vW+AnUHDSdJH8Wbwzp5d9NKkWCNmW4omcQZ9sANDKLUl2
1rUild6oGminJ5AjJ/aXhX3Xhpf+OS999xcLQ0Y53vZeVQ8nX+KrVyTx225dUSXd
rvb88Ipp4FbNqGZJmIYaNy0I6X2X1KQnEqtdeEEtccZ11JjaiSbk0M8zQr/WS7gd
zFOy5TvdylLDT0d+LOf7MzmtQctrc10gZxe7AQioxr2cDkmO8BOSTDI4Zi25vz5Y
GeJC1UQr7qHKEVQQJYS2OFZ8osa+11VpaZ3hEd/0c7LQQ/B7JmRRndbEUNJD30Xo
3R7q8AgmW73kxqF8far1AoIBAQD3GCDZL+BkYOqNpClpwJ/chKVnFtqY0KazZYPW
wvKcY1DNzMIFrFSsDQIzmHlXJ3pKSAW9z8ceKf6d1VYG2OWdJ8gWvGdnVg2zRxWb
r7bKpi96I4codob5EIvtR4Tr0XNDD1P7SHknzP8XF59O0TxWyGI1RTlHkbJXWivs
rHWWlecF0LpWKshoamg9vTlIjVxqlP1z6FcxFtazKBfbFBXTubRn9yj4+dbf57ta
Oho4jDA259jloiEBWIPFkDGY4Uva4FhaobWvOFhFtFEJ0INfiLeCqzaydEHB6cOF
37EDTlNE6LSQ8RdOym9xwXDpyBN257eCOBx0/k3IEi72xjV7AoIBAQDIk/T+8aN0
+0KNlWpWXY1Y47pAG12r25O7hFpzwDt19GvMVEqPJlUE6mLNABfg9VCJt8zy1Zoa
emyt389oUfUHw9qKerDM9o/gy6x0WPFbTzLVjrapqjmD0ceGUjHpZBh2eZ0uPIJo
JIvU2z+CguTs602qsQ05C54azOZRkkSj63ZubHvU22JtPEFrMvBR0MVfgfAn3Jxe
d/OZ8q/oWNA3eYmMC9bywl9euwR8+vPBnIQKTtSka/5xtb6MMw3+shWhJw04T0qS
4+3nDldTV2HLwvu2/m6a1HbpFARp7FWdjINQSj5sSJuUz9Y4W0ogWRFfRrFZkGTR
r7Qhmb24I723AoIBAQCN1rfkdGsms8twiy+KmRwrBam8x42r8vn+OOO5QCbsRsZ3
nHYzs3zXVpBQ9dGRigPU6AsDrmXqlsil6XR8cb08vT1Kb9QbqXYr1z48JF2VblgK
kKJhQ8iu6CSqjEds5sp3UDExKaUCh9ZWdyTnpYwxdM2LLrV2s9ff9M8KCOVnD52R
5QNRuzVXWt2Dsz9SunK2a9gh1NlYQHf2V6l6BMmSxCMfGu3WHfSOiwMtA/VRSIfU
vLnw92Ri1WCu49rUm19jwSx2uiUE9B8XxC5Qp/UBvgU5aPb48Wtd2MZ37rQ55Zg/
EiW0nfB3NhVLA3PBfyxNMS5R/cu4DNKxal6zIYxJAoIBAQCrX9dVOKp7We7cP8xy
bE5Ho5NQENGw89Q+xG/wNE/ZkXPFSkPGGW9M2uJ921WLrK4abQNce+rGMtHGodJ5
hIUCFHIWHYwQI5586Ci55ACcDogVdXFWd43athNvDa19hztrhq8ogSS+zHL49DdI
UIQ+dTGP5OSyV93Hckhba8jf8V/oKyKGlMd9I52VdRlmHiV1W/UQaerkwEJPx85K
jA+jRmGiWb9W/YI00z+bdWNtikg68m226lqlVy6uZTTQ5+GZJl+iPAUwijSLVXKB
T8jMKxWcnbls6pmKvcKjqfzgtty/bh/1rvfXZtjWoBEuoEs6h5EiQEAT9LbIeq5h
tY/zAoIBAQDukGt9XwcRxablk/HHroqzEcHU7SDphf0mViSCAgskD1FzE/s0r3yC
STj9CcrvfpsJMmeJCL9eJ4Fc5kafj/WV6g8ks6l4Lksb6J/15WdxUQsoeQFvfw3i
DbBJZnjdmfk60IYNhk8f0pivFAJ8a0WzDlsAM2g/A4BW4KQF6NhXUl5yMeugvuno
3YIkI6teaEX2In/etAJxtkZwPQpjzVbyfeyec9lkYY8pcdigPfW2vhPIdvEc9vC5
7hlqDj26eRsna1bJO7vca3tIjvL/2Nz1csXdj1LT6fuaYSOHcpL1SjJbdutsrrWN
zfCnfoT6aobOwwdh3DV1ZDMTP+iKUml7
-----END PRIVATE KEY-----
