Certificate:
    Data:
        Version: 3 (0x2)
        Serial Number: 1 (0x1)
    Signature Algorithm: sha256WithRSAEncryption
        Issuer: C=US, ST=California, L=Sacramento, O=Bloombox LLC, OU=Authority Operations, CN=Root Authority/emailAddress=info@bloombox.io
        Validity
            Not Before: Jul 31 18:24:17 2018 GMT
            Not After : Jul 28 18:24:17 2028 GMT
        Subject: C=US, ST=California, L=Sacramento, O=Bloombox LLC, OU=MONGO-MEMBER, CN=mdb-instance-0/emailAddress=dev@bigchaindb.com
        Subject Public Key Info:
            Public Key Algorithm: rsaEncryption
                Public-Key: (4096 bit)
                Modulus:
                    00:ab:0d:69:a0:7c:47:af:03:0b:1e:a7:a8:e6:1e:
                    15:3f:fc:c3:b0:89:37:3a:1e:1a:d6:22:05:50:4a:
                    53:a1:24:3f:87:70:bc:c7:c5:ad:4c:a8:dc:f6:49:
                    37:ad:46:b4:c0:5c:77:00:db:01:7c:4d:30:f2:75:
                    34:bc:b9:26:6a:27:f0:00:ed:f5:39:0b:aa:2c:ef:
                    74:94:96:e1:31:89:91:27:af:f7:a6:d5:dc:2e:ff:
                    43:2a:8d:06:5b:3c:a7:a4:32:f5:4a:e9:92:68:ee:
                    dc:f8:ed:2b:85:83:e9:47:c3:e5:d3:da:81:b9:08:
                    42:b4:c0:39:dd:d6:9b:4a:f3:a5:f9:2a:40:02:73:
                    36:d6:fd:c5:e9:c2:02:61:42:c1:58:48:df:58:b9:
                    c3:7e:30:d5:27:b7:a4:b7:55:75:fb:3a:ee:38:51:
                    18:e5:b8:99:59:d1:fd:c3:bc:89:b6:8b:fe:76:28:
                    65:24:4e:22:0e:f6:ae:e6:75:46:ca:b9:1a:17:00:
                    a4:e6:8f:5d:e6:16:d0:5b:24:95:f9:cb:97:68:4a:
                    70:d7:45:82:88:0c:eb:4c:c6:56:23:48:e3:90:eb:
                    47:1f:be:f9:39:60:ac:2b:57:03:31:1b:3e:bd:47:
                    60:17:98:f2:3f:5a:ff:f8:2c:af:50:bd:ec:07:fe:
                    14:38:de:41:78:53:10:42:32:60:97:fb:4a:4f:43:
                    ec:33:ac:fd:2c:c1:a1:63:61:81:a5:41:00:6e:30:
                    49:d8:c8:07:36:10:05:e1:8d:ef:e1:3f:5e:54:a9:
                    7a:6b:5d:d9:0b:6b:b6:7f:bd:d2:29:e3:61:c4:80:
                    48:a7:15:c5:14:b5:c6:cc:5a:bf:c0:af:fa:89:8c:
                    08:bc:19:23:20:20:78:03:66:66:bb:8e:f4:70:c8:
                    93:66:1a:f9:c6:12:0b:be:2c:c2:6c:da:e2:9b:49:
                    2c:2a:40:80:9c:c1:fc:45:1b:20:b6:d2:f4:e6:de:
                    7f:1c:eb:de:de:38:a1:ad:9a:af:81:40:9f:06:a9:
                    25:c5:c9:1d:9d:5e:ae:c3:f4:60:6a:69:aa:e5:2e:
                    e5:fb:9e:2f:dd:6c:93:d5:00:45:96:cd:8e:59:db:
                    78:e9:3e:a4:6a:84:7b:44:a4:5f:9f:a8:0b:78:ab:
                    ba:50:5c:05:65:59:f2:c0:9c:09:b2:6d:8e:40:18:
                    96:7a:96:29:dc:1b:af:93:c6:ab:89:83:59:bb:3f:
                    df:b3:fa:c7:b0:a1:63:56:93:c2:7d:a4:da:ef:af:
                    72:16:f1:62:b6:e2:02:07:ef:88:47:3e:31:4a:40:
                    10:72:b2:33:39:3f:be:d6:14:98:8d:96:e9:c6:43:
                    04:f9:4f
                Exponent: 65537 (0x10001)
        X509v3 extensions:
            X509v3 Basic Constraints: 
                CA:FALSE
            X509v3 Subject Key Identifier: 
                A4:4A:1F:EE:CD:E2:CE:E2:CB:A4:BB:2D:D3:F1:52:6D:CD:D4:29:3D
            X509v3 Authority Key Identifier: 
                keyid:6A:1D:5C:42:62:3B:FD:38:0A:6A:F8:D0:40:81:08:03:32:0B:24:4E
                DirName:/C=US/ST=California/L=Sacramento/O=Bloombox LLC/OU=Authority Operations/CN=Root Authority/emailAddress=info@bloombox.io
                serial:EF:90:FE:D6:13:23:4F:A1

            X509v3 Extended Key Usage: 
                TLS Web Server Authentication, TLS Web Client Authentication
            X509v3 Key Usage: 
                Digital Signature, Key Encipherment
            X509v3 Subject Alternative Name: 
                DNS:localhost, DNS:mdb-instance-0
    Signature Algorithm: sha256WithRSAEncryption
         9f:d9:6e:c4:6a:0f:75:b1:b2:21:f9:ae:29:59:bf:7c:c5:52:
         6b:48:f3:12:38:e4:a9:67:10:88:57:a6:ea:00:a9:75:39:53:
         c7:0d:82:3f:a3:ee:90:78:c8:70:6d:7f:5c:40:3e:db:68:b2:
         62:96:ea:ad:13:22:6b:f4:cd:a6:16:44:ae:f2:40:96:6c:ff:
         03:f7:e9:8c:ac:2a:61:c7:57:76:32:c7:54:06:28:97:89:1b:
         64:0c:e5:ae:56:76:64:73:36:58:62:8e:0f:0e:c8:48:02:18:
         b4:33:23:e7:0f:e3:1c:e1:9d:48:46:44:5c:75:4c:a9:90:2b:
         54:f0:cd:a8:b6:6c:ab:b7:b0:97:c3:7f:66:ce:a1:bd:a7:6e:
         20:26:83:fd:b9:fa:96:16:42:67:8a:51:58:8b:75:e8:4c:2a:
         cc:a7:99:45:aa:a1:aa:b4:2e:ed:26:62:b3:a2:57:56:d5:38:
         1e:9f:d4:60:e5:6f:9f:e7:55:8a:85:22:87:31:72:f8:fe:c6:
         df:24:38:2c:f1:0f:98:92:c5:fb:05:49:36:47:34:fd:30:64:
         ec:7a:74:b5:55:10:a1:46:32:96:31:71:81:50:07:73:b3:7b:
         99:ed:11:87:cb:be:ab:71:52:28:1a:92:ab:02:ee:d7:b0:fc:
         81:34:05:f5:9f:c6:12:58:c1:fd:aa:3c:54:8c:88:53:4f:9d:
         84:a1:af:8f:95:67:05:40:8f:f7:6f:1c:fa:bc:8e:34:d8:0c:
         a8:38:0f:db:e7:39:b7:af:3d:3d:5c:29:b7:6f:0a:61:95:9f:
         83:3e:54:26:81:19:2f:88:68:f5:a3:dc:0c:1a:f2:e1:ba:59:
         a7:22:b7:43:04:6c:c8:ee:0f:3d:08:4d:22:73:bd:d8:fe:ae:
         e3:a5:f7:b4:85:0d:87:a2:34:01:a3:75:fe:54:5f:03:a8:45:
         4b:e1:13:bf:18:81:40:8e:91:33:b0:4c:9c:9e:68:ad:95:49:
         f6:76:7e:97:81:3c:22:db:4d:0f:c7:49:95:7b:8c:e6:7b:99:
         95:73:b7:af:6e:fb:34:23:b9:30:ad:4d:af:2f:b9:df:f0:f6:
         e4:eb:8b:b7:2d:d0:5b:23:ed:4d:d7:72:2f:6f:4e:44:00:45:
         67:df:4c:47:64:7f:b4:3a:13:e5:d9:88:5b:4f:85:a0:29:e5:
         e3:de:af:e8:33:db:3e:62:ac:66:00:40:ec:df:11:d0:46:fd:
         d2:2d:de:75:73:10:55:b9:5d:e9:9c:af:f2:d0:dd:cd:bf:11:
         cd:c0:3a:da:7a:c3:bc:e0:68:7e:4e:7d:02:8a:de:0f:a3:8f:
         22:70:2c:06:7e:f9:13:37
-----BEGIN CERTIFICATE-----
MIIHJjCCBQ6gAwIBAgIBATANBgkqhkiG9w0BAQsFADCBpzELMAkGA1UEBhMCVVMx
EzARBgNVBAgMCkNhbGlmb3JuaWExEzARBgNVBAcMClNhY3JhbWVudG8xFTATBgNV
BAoMDEJsb29tYm94IExMQzEdMBsGA1UECwwUQXV0aG9yaXR5IE9wZXJhdGlvbnMx
FzAVBgNVBAMMDlJvb3QgQXV0aG9yaXR5MR8wHQYJKoZIhvcNAQkBFhBpbmZvQGJs
b29tYm94LmlvMB4XDTE4MDczMTE4MjQxN1oXDTI4MDcyODE4MjQxN1owgaExCzAJ
BgNVBAYTAlVTMRMwEQYDVQQIDApDYWxpZm9ybmlhMRMwEQYDVQQHDApTYWNyYW1l
bnRvMRUwEwYDVQQKDAxCbG9vbWJveCBMTEMxFTATBgNVBAsMDE1PTkdPLU1FTUJF
UjEXMBUGA1UEAwwObWRiLWluc3RhbmNlLTAxITAfBgkqhkiG9w0BCQEWEmRldkBi
aWdjaGFpbmRiLmNvbTCCAiIwDQYJKoZIhvcNAQEBBQADggIPADCCAgoCggIBAKsN
aaB8R68DCx6nqOYeFT/8w7CJNzoeGtYiBVBKU6EkP4dwvMfFrUyo3PZJN61GtMBc
dwDbAXxNMPJ1NLy5Jmon8ADt9TkLqizvdJSW4TGJkSev96bV3C7/QyqNBls8p6Qy
9Urpkmju3PjtK4WD6UfD5dPagbkIQrTAOd3Wm0rzpfkqQAJzNtb9xenCAmFCwVhI
31i5w34w1Se3pLdVdfs67jhRGOW4mVnR/cO8ibaL/nYoZSROIg72ruZ1Rsq5GhcA
pOaPXeYW0FsklfnLl2hKcNdFgogM60zGViNI45DrRx+++TlgrCtXAzEbPr1HYBeY
8j9a//gsr1C97Af+FDjeQXhTEEIyYJf7Sk9D7DOs/SzBoWNhgaVBAG4wSdjIBzYQ
BeGN7+E/XlSpemtd2Qtrtn+90injYcSASKcVxRS1xsxav8Cv+omMCLwZIyAgeANm
ZruO9HDIk2Ya+cYSC74swmza4ptJLCpAgJzB/EUbILbS9Obefxzr3t44oa2ar4FA
nwapJcXJHZ1ersP0YGppquUu5fueL91sk9UARZbNjlnbeOk+pGqEe0SkX5+oC3ir
ulBcBWVZ8sCcCbJtjkAYlnqWKdwbr5PGq4mDWbs/37P6x7ChY1aTwn2k2u+vchbx
YrbiAgfviEc+MUpAEHKyMzk/vtYUmI2W6cZDBPlPAgMBAAGjggFfMIIBWzAJBgNV
HRMEAjAAMB0GA1UdDgQWBBSkSh/uzeLO4sukuy3T8VJtzdQpPTCB3AYDVR0jBIHU
MIHRgBRqHVxCYjv9OApq+NBAgQgDMgskTqGBraSBqjCBpzELMAkGA1UEBhMCVVMx
EzARBgNVBAgMCkNhbGlmb3JuaWExEzARBgNVBAcMClNhY3JhbWVudG8xFTATBgNV
BAoMDEJsb29tYm94IExMQzEdMBsGA1UECwwUQXV0aG9yaXR5IE9wZXJhdGlvbnMx
FzAVBgNVBAMMDlJvb3QgQXV0aG9yaXR5MR8wHQYJKoZIhvcNAQkBFhBpbmZvQGJs
b29tYm94LmlvggkA75D+1hMjT6EwHQYDVR0lBBYwFAYIKwYBBQUHAwEGCCsGAQUF
BwMCMAsGA1UdDwQEAwIFoDAkBgNVHREEHTAbgglsb2NhbGhvc3SCDm1kYi1pbnN0
YW5jZS0wMA0GCSqGSIb3DQEBCwUAA4ICAQCf2W7Eag91sbIh+a4pWb98xVJrSPMS
OOSpZxCIV6bqAKl1OVPHDYI/o+6QeMhwbX9cQD7baLJiluqtEyJr9M2mFkSu8kCW
bP8D9+mMrCphx1d2MsdUBiiXiRtkDOWuVnZkczZYYo4PDshIAhi0MyPnD+Mc4Z1I
RkRcdUypkCtU8M2otmyrt7CXw39mzqG9p24gJoP9ufqWFkJnilFYi3XoTCrMp5lF
qqGqtC7tJmKzoldW1Tgen9Rg5W+f51WKhSKHMXL4/sbfJDgs8Q+YksX7BUk2RzT9
MGTsenS1VRChRjKWMXGBUAdzs3uZ7RGHy76rcVIoGpKrAu7XsPyBNAX1n8YSWMH9
qjxUjIhTT52Eoa+PlWcFQI/3bxz6vI402AyoOA/b5zm3rz09XCm3bwphlZ+DPlQm
gRkviGj1o9wMGvLhulmnIrdDBGzI7g89CE0ic73Y/q7jpfe0hQ2HojQBo3X+VF8D
qEVL4RO/GIFAjpEzsEycnmitlUn2dn6XgTwi200Px0mVe4zme5mVc7evbvs0I7kw
rU2vL7nf8Pbk64u3LdBbI+1N13Ivb05EAEVn30xHZH+0OhPl2YhbT4WgKeXj3q/o
M9s+YqxmAEDs3xHQRv3SLd51cxBVuV3pnK/y0N3NvxHNwDraesO84Gh+Tn0Cit4P
o48icCwGfvkTNw==
-----END CERTIFICATE-----
-----BEGIN PRIVATE KEY-----
MIIJQgIBADANBgkqhkiG9w0BAQEFAASCCSwwggkoAgEAAoICAQCrDWmgfEevAwse
p6jmHhU//MOwiTc6HhrWIgVQSlOhJD+HcLzHxa1MqNz2STetRrTAXHcA2wF8TTDy
dTS8uSZqJ/AA7fU5C6os73SUluExiZEnr/em1dwu/0MqjQZbPKekMvVK6ZJo7tz4
7SuFg+lHw+XT2oG5CEK0wDnd1ptK86X5KkACczbW/cXpwgJhQsFYSN9YucN+MNUn
t6S3VXX7Ou44URjluJlZ0f3DvIm2i/52KGUkTiIO9q7mdUbKuRoXAKTmj13mFtBb
JJX5y5doSnDXRYKIDOtMxlYjSOOQ60cfvvk5YKwrVwMxGz69R2AXmPI/Wv/4LK9Q
vewH/hQ43kF4UxBCMmCX+0pPQ+wzrP0swaFjYYGlQQBuMEnYyAc2EAXhje/hP15U
qXprXdkLa7Z/vdIp42HEgEinFcUUtcbMWr/Ar/qJjAi8GSMgIHgDZma7jvRwyJNm
GvnGEgu+LMJs2uKbSSwqQICcwfxFGyC20vTm3n8c697eOKGtmq+BQJ8GqSXFyR2d
Xq7D9GBqaarlLuX7ni/dbJPVAEWWzY5Z23jpPqRqhHtEpF+fqAt4q7pQXAVlWfLA
nAmybY5AGJZ6lincG6+TxquJg1m7P9+z+sewoWNWk8J9pNrvr3IW8WK24gIH74hH
PjFKQBBysjM5P77WFJiNlunGQwT5TwIDAQABAoICABWZDPRBnP+BH99QBiiANeit
brwUp0+ES5ksFIWtzN905zyfxIZo9FfQno3OcuRDIEGFq1UFUiuyx3Jl0DHgIvSW
dFx5r1PzoBoqZgr4/hg2KYjcVCXRrQqWGpH92oacowI9mPFLirwLJQWdVLh4DnWM
S7GzTlvhqiKOfv/+v/73wsYySoDEsXD1/A5m+8vyFN2j3eejFQcS/WcVbgvkE5CU
QU4FF2KyK1LHDAayAKV3Cbs7oIG0B+LhzPW2ayjftGahIzElexK5YLeRaApxZX26
oILd+PxavT8lb+zmoC1FN+bPQ0K2bSbPxsxlh0d5Aq4YFsZfJCDe64gDYxEjSMQs
hhk6kZa9zZUTqJBfK+RLUGvXiIrIheze19fIO3gLV+Zb8J4R9/s1RRTJmwtugTPU
FsQgRJ7uJeeaimt0LAcjSUiS6cFBc2LxhMfkiX8FfnzB1NAwfaR4EHyUIpJu2iSx
HqO1EetvfnhgpqNGOdu7kvmg1lJKkMafsqWKE/vef9Czw+PjNRs9tDeybgHiACb0
mz/RDR1Z7numpF7cKCFvipvKXGyXyWlX9Abw3c9TrmJjJxzOObbc2ioi9sB/pgH3
PietTIVg1iWY1UzOFsY0CivrCeag7b18Y6rwimqZ6xKF56lJo0bEQWDZIF/vwa3v
0gJhaM93pkL7vzJ+OZvhAoIBAQDdcwYOxy9BXlLb9yu1aqtsSx/5VSXIg7+eaW1g
oO2pZEraJNcyZwU7idMYH4lQm3hi5XhQcYDChuPWHtb1GhcLq9rydrqkKSTrgjUH
LaPEHDRm+H8P9Jmt/RS2tRVeh2/K5Fz4HLK1WD4f72mgTo7eC7YBTHmZTLa+lrIr
UkX0yeqyZbZrPZFwaG10xlDlOXyojSrFGYoKh1elESCrlk2iRwZIOiA0wiVih1hT
mqXLaW5laaKNcDtOMiAImEnyWGjSk8IcrSw3D7ob9+MDMbgHe9EZtMAaIckZovex
xj/R3pGe1/f34o5vBwA7LFBJaiUOUQo3e95OJrHZEI/QYET/AoIBAQDFvXhHWpMR
i0qu+WwErOv8XY6vuOkzX8yNf/96g8FMnB84QwwSZiSlbwhOYe92EJz8q8ZV730U
8xPhwW7oGduf4hX/zWVa9vgDAU1VLApkC8yDU5GAFl0Bn2ygpt2D4zvP7fAXj/hv
YzGLi5o/T8ot5rdB9Yw12arPeVKrWU5jjDTHMNEPAeYdJAU7b1qmZlmbTilngu0L
DC6gj475XDvYdchsacneC/ADzySPu6h7x5BmIibSACPfO+D7XMJW79/VzMz4sSpc
Hbe64n/hN6BiPFnDCkmhgoGvq2h90fu+F8q2vWIIo88GbMNkXrDDdiUBSFxnOx0h
3uPgrW4W8buxAoIBAH9f6dwWNdgjqQVc5oczE+b2Ty3bDCCJp242tfMenZURWvye
tCkJmLjmTcVSXmk/A7/evZWHs8gwTlya4ImauCa+cvGD2VcTU2kjO90lI01p67pO
tMc4qiyppYByKBh3TpYlRFRyLVihqRo1W0wZ45NUqRuWIVtMBNEbXOAOMq7adWSn
nIWSpFVDu7GvYFh4+Hr6t98nEX982azYbTJFAeKVd8eTp3KxOU+zCdsM2NBnlFhA
qn8wTuxraIGJFv+OWrzEwKI9+XCyWxo7OxhbQL8NOPjQPq7JQCK+2jonDg5pNtlm
3/p1FfhGzps6ofOYWjgh5P6FARlyqFlybUYuGYECggEAQ+owXml4a6UosHIQLIbr
wlCryiS7S57SlaLprz2DbXmNq3gztDoKyhsZgjpW0XkhQhMJWsiXcFOQd5BFNEh1
SzOOlL4J2rVKN1YCJoeqxfPbeRuBtLl5li4YVBEbscmg6GhzdtRG4pLyGFiJUMdp
zFwagvgAARrSdNHZl+pjZwNnuSZGF15yl32gomo7ez1Z92JgDCJGoe28Mf88ft6z
20OQ49Ntturos5Y4m3k7g8/mA34lUSklKO3a9tpEETHv8fGWULAguWSnjvNuMn81
gafyuG9XHLbDLf+0MsqlKQPo5tyiyA7i8vT2Iwn2shto2EjvG7GM7u4r3CYU0qKR
8QKCAQEAq3b72MoZQZKE6oHaGcjU4PIHjnm4RcQTzqAFqUq7Nb+8a6DpZjRBceNI
FQaT4xTUr+aD3z8F9rGP6Z76fEqZC0ekXfICp9UpGdMNj5z6VLxdLvdst2U40uZq
Ghzu8MonKUvyNYRVo8XyAM9uLdWNl2SIk+2z15b7RQo8N2NHQSNX3z5S0uFEqiTn
6kh0Q3n9XPJE4PMtvlnisQur8u67pDRfqLaFzUzU78ZYnEPivNcPHt6nTCJcP4X9
2+DMLR9hFyZcMHipvPSUzI3a5jmjLAfzNo48GhEt9AWFWkcREyHLaS+FlfmOpOdN
kU1UFH7KoKht1wDGCXy8T18biEbj+A==
-----END PRIVATE KEY-----
