Certificate:
    Data:
        Version: 3 (0x2)
        Serial Number: 3 (0x3)
    Signature Algorithm: sha256WithRSAEncryption
        Issuer: C=US, ST=California, L=Sacramento, O=Bloombox LLC, OU=Authority Operations, CN=Root Authority/emailAddress=info@bloombox.io
        Validity
            Not Before: Jul 30 23:58:13 2018 GMT
            Not After : Jul 27 23:58:13 2028 GMT
        Subject: C=US, ST=California, L=Sacramento, O=Bloombox LLC, OU=MONGO-CLIENT, CN=mdb-mon-instance-0/emailAddress=dev@bigchaindb.com
        Subject Public Key Info:
            Public Key Algorithm: rsaEncryption
                Public-Key: (4096 bit)
                Modulus:
                    00:d2:dc:b3:f6:21:63:45:08:96:e8:c0:ed:32:51:
                    ed:76:88:05:f3:ac:16:a3:ab:d8:3f:58:5b:43:f2:
                    85:86:3f:fc:90:11:74:40:3c:9e:a7:4d:b9:22:2f:
                    32:49:22:ee:2c:29:1b:4f:db:68:bb:d9:24:5f:54:
                    5a:0d:68:a0:f0:88:c5:bb:c2:83:de:40:70:1e:14:
                    ea:1b:70:d3:c8:bb:f0:03:6c:ed:5d:49:5b:b2:ac:
                    f4:8a:66:86:f0:10:d0:0c:5f:51:0f:40:1f:17:ca:
                    ca:1c:60:1c:2a:90:c3:72:69:41:78:b3:42:b6:3e:
                    c1:41:5f:67:fa:4c:15:85:b5:ef:9e:19:0c:00:e7:
                    7b:0a:f1:cc:5f:71:78:d0:6f:38:06:32:19:6e:c2:
                    8b:e7:87:6e:d3:68:07:31:92:90:5b:ea:1a:2a:75:
                    3d:28:3c:d0:1e:1c:c0:a9:f1:03:20:e0:b4:4f:98:
                    1e:61:bb:81:0b:0c:4e:5b:91:b1:45:44:ca:8a:aa:
                    5a:f6:ba:df:6d:e9:bc:d0:5f:0f:b9:e7:3f:af:2e:
                    de:64:27:f9:a0:5a:a3:df:72:7a:4d:07:18:9a:d7:
                    95:f6:f6:09:25:97:09:4a:72:e1:ef:8a:3a:08:7a:
                    b5:18:d4:5a:6e:7e:b3:cf:e2:92:4a:de:a3:ff:20:
                    e5:5a:a3:85:3f:23:76:cb:a1:88:85:e4:bd:1e:d9:
                    95:46:7f:85:1c:3c:d5:63:7f:eb:56:2e:dc:89:fc:
                    48:e8:d2:d0:d4:cc:f8:46:6c:12:56:42:db:66:a8:
                    3b:10:e1:10:61:7b:52:aa:1e:53:a4:95:96:8e:be:
                    bc:8b:ba:6f:72:8a:70:06:40:dc:dd:66:a9:58:27:
                    33:c1:53:cf:e8:c4:6a:6e:98:ca:f2:49:c8:18:6a:
                    dd:a3:7f:cd:cd:a6:85:01:23:13:f6:fc:68:94:85:
                    3e:4b:13:33:3d:26:58:fc:02:85:3a:e8:4c:61:cc:
                    37:89:96:b7:19:8e:fb:f0:a1:a3:7d:c4:34:6c:4b:
                    4b:8d:57:f7:45:f9:d4:74:3b:2e:2c:c2:8b:68:b3:
                    94:7f:69:d0:fb:67:c5:27:6e:cf:5e:4d:af:18:ba:
                    17:e8:f6:28:d2:bd:b6:ef:dd:f9:ee:63:2b:3a:b8:
                    fe:6d:9f:b0:26:97:4a:5b:fc:9d:57:a1:c9:1d:f0:
                    27:5b:a5:32:86:39:1f:77:95:ab:5b:70:a9:35:c0:
                    f8:b7:a0:28:bb:de:c5:db:0a:a7:f9:77:ff:85:a3:
                    45:c2:2e:9a:75:22:30:07:6a:cd:33:76:01:db:c1:
                    b8:0b:e9:aa:f2:43:27:c7:2d:d4:c2:53:e4:fe:a9:
                    46:d8:db
                Exponent: 65537 (0x10001)
        X509v3 extensions:
            X509v3 Basic Constraints: 
                CA:FALSE
            X509v3 Subject Key Identifier: 
                EC:0E:B4:D9:63:E6:C4:4D:C1:65:CC:73:CF:7B:AC:D5:CE:18:07:09
            X509v3 Authority Key Identifier: 
                keyid:1D:55:E4:9E:10:83:C6:01:CE:78:B5:58:BC:B2:3D:85:AD:88:59:66
                DirName:/C=US/ST=California/L=Sacramento/O=Bloombox LLC/OU=Authority Operations/CN=Root Authority/emailAddress=info@bloombox.io
                serial:CA:86:92:FB:2E:7F:BF:29

            X509v3 Extended Key Usage: 
                TLS Web Client Authentication
            X509v3 Key Usage: 
                Digital Signature
    Signature Algorithm: sha256WithRSAEncryption
         12:bf:62:f7:c1:b4:5b:8f:5f:59:2c:3a:d9:29:02:45:74:f0:
         06:a3:76:ea:77:10:c8:a3:40:e3:f9:0e:46:ed:81:e0:ff:f2:
         97:29:b5:1c:5d:3d:eb:06:d2:1c:af:16:35:ab:06:03:c8:00:
         cd:88:79:68:28:eb:a3:d9:7f:a2:1e:cc:80:92:83:91:46:0c:
         79:18:70:ff:d7:f3:e8:89:f8:f7:e1:40:bd:59:6d:22:89:68:
         2f:94:f3:1a:aa:46:66:af:df:e5:16:a0:d5:c5:68:c9:8f:6f:
         ff:d1:fe:e0:0e:41:25:d7:28:14:7b:12:cd:bb:f7:51:be:ce:
         0e:3d:33:f0:d0:ba:8f:90:4c:c8:35:36:66:6c:9e:d2:03:eb:
         34:6b:1f:c6:2f:7e:e2:e3:94:e4:70:7b:3c:13:9a:69:5a:63:
         cf:15:86:b9:af:32:c5:22:61:f7:11:f5:82:5b:8c:5a:e6:ba:
         b0:42:54:5f:1c:d4:e4:17:e1:68:68:cd:42:fb:fa:7f:d5:97:
         49:63:b0:92:b1:90:d8:ab:ff:7a:eb:81:c5:f4:9f:e1:19:64:
         b5:ad:0a:04:8a:73:de:d5:4d:af:40:d6:06:db:50:1e:56:14:
         04:07:d6:39:c1:ff:9c:10:d6:8e:31:93:6d:82:15:b3:1f:ac:
         a6:89:6d:18:41:91:2a:aa:2a:1a:fe:ef:28:27:ec:f0:71:05:
         ae:59:6e:d8:8a:f6:02:72:5b:19:88:df:69:83:5a:fc:9a:0e:
         c6:03:bb:3d:da:f1:b4:27:f6:74:53:1f:f8:30:09:72:31:a4:
         d6:ec:ca:2e:e3:3e:ff:6b:99:7b:0f:63:52:47:ba:f5:a8:1a:
         50:39:34:ed:19:64:c6:59:f7:7b:e3:19:89:60:a5:46:79:ca:
         95:a1:b1:47:b0:e1:35:c1:f6:33:36:c8:a6:96:b0:d1:5d:e6:
         92:81:5c:56:f7:de:06:55:97:88:27:fe:30:bc:4d:3e:55:b4:
         9c:a9:ba:5b:15:d2:1f:6c:1a:35:23:89:b0:64:a4:65:d8:0e:
         df:8f:fa:65:ee:ef:6e:ae:05:2e:83:c5:4d:fe:a0:f5:12:01:
         c1:14:2c:04:51:81:4c:63:15:e9:fb:d3:df:a2:08:8a:bb:ad:
         e9:35:6c:af:d3:10:45:79:88:70:c6:c8:f7:c4:5a:a2:67:83:
         06:35:13:f7:99:0c:cf:1e:f8:0b:1c:3d:bc:0b:a8:40:f0:41:
         d2:d8:4a:32:76:a5:ca:9f:99:d2:f7:ab:2e:b5:2e:3f:d0:7e:
         a3:67:31:1d:46:c8:c3:71:fe:f0:90:48:13:14:e3:62:c1:bb:
         46:e0:91:bc:b3:81:fc:7a
-----BEGIN CERTIFICATE-----
MIIG+jCCBOKgAwIBAgIBAzANBgkqhkiG9w0BAQsFADCBpzELMAkGA1UEBhMCVVMx
EzARBgNVBAgMCkNhbGlmb3JuaWExEzARBgNVBAcMClNhY3JhbWVudG8xFTATBgNV
BAoMDEJsb29tYm94IExMQzEdMBsGA1UECwwUQXV0aG9yaXR5IE9wZXJhdGlvbnMx
FzAVBgNVBAMMDlJvb3QgQXV0aG9yaXR5MR8wHQYJKoZIhvcNAQkBFhBpbmZvQGJs
b29tYm94LmlvMB4XDTE4MDczMDIzNTgxM1oXDTI4MDcyNzIzNTgxM1owgaUxCzAJ
BgNVBAYTAlVTMRMwEQYDVQQIDApDYWxpZm9ybmlhMRMwEQYDVQQHDApTYWNyYW1l
bnRvMRUwEwYDVQQKDAxCbG9vbWJveCBMTEMxFTATBgNVBAsMDE1PTkdPLUNMSUVO
VDEbMBkGA1UEAwwSbWRiLW1vbi1pbnN0YW5jZS0wMSEwHwYJKoZIhvcNAQkBFhJk
ZXZAYmlnY2hhaW5kYi5jb20wggIiMA0GCSqGSIb3DQEBAQUAA4ICDwAwggIKAoIC
AQDS3LP2IWNFCJbowO0yUe12iAXzrBajq9g/WFtD8oWGP/yQEXRAPJ6nTbkiLzJJ
Iu4sKRtP22i72SRfVFoNaKDwiMW7woPeQHAeFOobcNPIu/ADbO1dSVuyrPSKZobw
ENAMX1EPQB8XysocYBwqkMNyaUF4s0K2PsFBX2f6TBWFte+eGQwA53sK8cxfcXjQ
bzgGMhluwovnh27TaAcxkpBb6hoqdT0oPNAeHMCp8QMg4LRPmB5hu4ELDE5bkbFF
RMqKqlr2ut9t6bzQXw+55z+vLt5kJ/mgWqPfcnpNBxia15X29gkllwlKcuHvijoI
erUY1FpufrPP4pJK3qP/IOVao4U/I3bLoYiF5L0e2ZVGf4UcPNVjf+tWLtyJ/Ejo
0tDUzPhGbBJWQttmqDsQ4RBhe1KqHlOklZaOvryLum9yinAGQNzdZqlYJzPBU8/o
xGpumMryScgYat2jf83NpoUBIxP2/GiUhT5LEzM9Jlj8AoU66ExhzDeJlrcZjvvw
oaN9xDRsS0uNV/dF+dR0Oy4swotos5R/adD7Z8Unbs9eTa8Yuhfo9ijSvbbv3fnu
Yys6uP5tn7Aml0pb/J1Xockd8CdbpTKGOR93latbcKk1wPi3oCi73sXbCqf5d/+F
o0XCLpp1IjAHas0zdgHbwbgL6aryQyfHLdTCU+T+qUbY2wIDAQABo4IBLzCCASsw
CQYDVR0TBAIwADAdBgNVHQ4EFgQU7A602WPmxE3BZcxzz3us1c4YBwkwgdwGA1Ud
IwSB1DCB0YAUHVXknhCDxgHOeLVYvLI9ha2IWWahga2kgaowgacxCzAJBgNVBAYT
AlVTMRMwEQYDVQQIDApDYWxpZm9ybmlhMRMwEQYDVQQHDApTYWNyYW1lbnRvMRUw
EwYDVQQKDAxCbG9vbWJveCBMTEMxHTAbBgNVBAsMFEF1dGhvcml0eSBPcGVyYXRp
b25zMRcwFQYDVQQDDA5Sb290IEF1dGhvcml0eTEfMB0GCSqGSIb3DQEJARYQaW5m
b0BibG9vbWJveC5pb4IJAMqGkvsuf78pMBMGA1UdJQQMMAoGCCsGAQUFBwMCMAsG
A1UdDwQEAwIHgDANBgkqhkiG9w0BAQsFAAOCAgEAEr9i98G0W49fWSw62SkCRXTw
BqN26ncQyKNA4/kORu2B4P/ylym1HF096wbSHK8WNasGA8gAzYh5aCjro9l/oh7M
gJKDkUYMeRhw/9fz6In49+FAvVltIoloL5TzGqpGZq/f5Rag1cVoyY9v/9H+4A5B
JdcoFHsSzbv3Ub7ODj0z8NC6j5BMyDU2Zmye0gPrNGsfxi9+4uOU5HB7PBOaaVpj
zxWGua8yxSJh9xH1gluMWua6sEJUXxzU5BfhaGjNQvv6f9WXSWOwkrGQ2Kv/euuB
xfSf4Rlkta0KBIpz3tVNr0DWBttQHlYUBAfWOcH/nBDWjjGTbYIVsx+spoltGEGR
KqoqGv7vKCfs8HEFrllu2Ir2AnJbGYjfaYNa/JoOxgO7PdrxtCf2dFMf+DAJcjGk
1uzKLuM+/2uZew9jUke69agaUDk07Rlkxln3e+MZiWClRnnKlaGxR7DhNcH2MzbI
ppaw0V3mkoFcVvfeBlWXiCf+MLxNPlW0nKm6WxXSH2waNSOJsGSkZdgO34/6Ze7v
bq4FLoPFTf6g9RIBwRQsBFGBTGMV6fvT36IIirut6TVsr9MQRXmIcMbI98RaomeD
BjUT95kMzx74Cxw9vAuoQPBB0thKMnalyp+Z0verLrUuP9B+o2cxHUbIw3H+8JBI
ExTjYsG7RuCRvLOB/Ho=
-----END CERTIFICATE-----
-----BEGIN PRIVATE KEY-----
MIIJRAIBADANBgkqhkiG9w0BAQEFAASCCS4wggkqAgEAAoICAQDS3LP2IWNFCJbo
wO0yUe12iAXzrBajq9g/WFtD8oWGP/yQEXRAPJ6nTbkiLzJJIu4sKRtP22i72SRf
VFoNaKDwiMW7woPeQHAeFOobcNPIu/ADbO1dSVuyrPSKZobwENAMX1EPQB8Xysoc
YBwqkMNyaUF4s0K2PsFBX2f6TBWFte+eGQwA53sK8cxfcXjQbzgGMhluwovnh27T
aAcxkpBb6hoqdT0oPNAeHMCp8QMg4LRPmB5hu4ELDE5bkbFFRMqKqlr2ut9t6bzQ
Xw+55z+vLt5kJ/mgWqPfcnpNBxia15X29gkllwlKcuHvijoIerUY1FpufrPP4pJK
3qP/IOVao4U/I3bLoYiF5L0e2ZVGf4UcPNVjf+tWLtyJ/Ejo0tDUzPhGbBJWQttm
qDsQ4RBhe1KqHlOklZaOvryLum9yinAGQNzdZqlYJzPBU8/oxGpumMryScgYat2j
f83NpoUBIxP2/GiUhT5LEzM9Jlj8AoU66ExhzDeJlrcZjvvwoaN9xDRsS0uNV/dF
+dR0Oy4swotos5R/adD7Z8Unbs9eTa8Yuhfo9ijSvbbv3fnuYys6uP5tn7Aml0pb
/J1Xockd8CdbpTKGOR93latbcKk1wPi3oCi73sXbCqf5d/+Fo0XCLpp1IjAHas0z
dgHbwbgL6aryQyfHLdTCU+T+qUbY2wIDAQABAoICAQCrnMgyd3Xth1Ia2HmzzI3x
PD9r1BEQ4Bk9ZNHSeR1G5+jL8AinBy8whsc4FSVd9LnW4xXBZpbU26MImwQ3iYIC
ga48Y9EjH1qggPEPqEIVSy/J+estUzj4MF9ODKeh1m0cxK6aNNuZZ4gak/YYhn0r
LpMEgxC2dlieteFQCoAxtKLyDvx/9+ViQOzOePGU4g+8qyWbyWZH5yfBkxbXt6sZ
w2vMRmKhzuyqtUfwh6C+L2NQrEN90zbxIPDdAbQ+5f/Z30/tIqYZNHRhOhz4dkaU
cxa4ePhnE53vi6IR8saJrw/0UMWc/FGpb9qGM/+LSyL8tEdtSl1ZwdLCcHUUfVdr
dDAMWRsZaDU16dAzMJBZLhuFWi5SFXFLN18Z/mbVpn3+HmbrBriaasvlKi0tNJYy
7Qw8xdELm8TD4gqJu4ElX25Em/VghSQvfbpA4Om7pc05DvIs2PHN0Lbmkje9qAfN
9AwnuEv6F90ll+9+QWKd5vvTgJuLuLHbXUEHfIzCzfA8UEQ2RE29rOb3LbCLtMF1
o/tEAZSlrzjRnS+he6OX04qI5eyz2dCiEC9zIv/eV0VozkoZ0bqgP7f1dX2mIGm2
U7pIsiexRbl8OS20FQWPw89Ll9O9wHwLcWiX3luJnV61IY7qjFNv6P1T8roeMFCo
HFuUG0ohz67eVeeVWwU/QQKCAQEA+TpXeUpktugTVuKbyhZuRvL+3ixrHzXilmQ6
L1QMk1qaKWLDsFTAbouYsVElvwtIj73G+k2F8YrxQQDnQrR7QyAsaYUOM3rq/so2
QimxBn3cf8bdeQRc5iwjEz4LRPya6/C3hDVSRxfVduEb9mv5Amva7krF7ojK5KVc
4u2zL9tS672UFIVIWqOSqWQVcX6DyhYfpz0Dr5gMXhlrW0oiwPgXL3HUve3lTuX7
6eBaj7ffZSci68l9mlgs0YmDcqYJbJ0gR79uQJWFTDaqlPHjg99/7GI56pMykOii
HLkyafEzquy5NzgsGlv5m+k3z2ufgUQep3Lvpp1wdDTA6NIz6wKCAQEA2Jd8Bhj/
6UenmBrcIxbvV9ne/Hs9EgvySDguyp6yskT99ff41WQsWNiJAPjWqyp9CJM3xriP
rTX1ccLEICI/qb5RYOE8/h0ioWHSljEJwSoY4PNv9rdurLCLkDYaj1opAwht0ltk
FxXWFirW4Dq63VeEfV2iaVLXnoh5nUgFPO78M2nr6yb7Kz8K7C/HyWvg42mVgtSk
BAcmAxvPrmXRL37lli3jlAZOMrVoF3LkJXKlYu+k9HGR1U9i7fk2U11y9nBhG1kQ
Pw9sSgDaC3bKuvearH4rnjMyLZtRrcq8bSeVDNTK4vZqapz+YBJICE4rIO/6J39y
M0mRVvfOdz/i0QKCAQEAiNSkI95ZLyZ5P7GIUMpB30gX78i5Q1hlP6ZlX4iootoS
W3hy8cOGJusTeP6RV7MNMoXB0bhwOm3LCKJDVZcbOX5Xg9NeOZtZm2tPoMGdBHBj
d++ptoBTtLc0xqLAsy5wq+rsBnTz6D5In0z1+jPLca3fdAavZsfJhQDY32obf8HN
Y8ogm6eVUtYNdlyRfU81ceT1me7gsC4tVBhmnac1L3bF2/GGGISc6dVQmlXnwpHz
32g+Pu/PusaATMZP2ckY0X3utBWApYqxtWcp/j5TaBpz9Eb1fzkzgOWH43c2G34m
nMf85Dk91Xb7ssK3NnTjDKhmoA51TqePju1LoEeP4wKCAQBsmE9D02cENLwP5G+5
XDd2ybMmzjeJg9nfYeP8DWO1RCg9Gi5193rQtQjEJv+i5HO6R+3wQfsvsl00w52I
KwPWfKjatTPaiQsi9SQbz8x/QDcnGodpoQDprr7a+HWKqH7lmWVO0im19WnYxXPl
Cy1D6yxvmvHicvnO78hiFokhywVCVfpGdc37GenFEBPQprkj7H1dEnaF2nuxlVEk
tMIUWUCNcsanIh41CIV/NEi1iezoVRVUxliDJgGJJamaVMFeVGwrxRUDOR1nYVPx
6YauBZVUpRIDiNHA0h46z+p3pB/0RgDPmRM0DzDvRFs/ZsnzAr9e7GR62Ij5nNe1
LJ/xAoIBAQCYMHX3GwehzPjRdm4bDhdOeP6MVV6BbeUxYGuiaudCbq7esd6eEuvC
cceusRn7ke54/E88+t+hxoeJ1NbOco6w/C4LjwCHVBCpxTWPsrDmYxrProc6UIwe
FEWgmUgl3k7SCUbJnZklwwCoYU9XIxsgWZAywlFO59S6cy9cnq6TCobTvuSDHzjK
h+xIR6gHAkQewwLB0jFNwSEuafhyc9u7H/QHMyXBuekrt9ckCCE3dLl6YifY5KR+
1s3nmoqIbIoTWLuksX08/cAu7taLnNuAv5ZrXOrqqjEnQ2fyy3J1gmT9iWV4v7J5
gHOX2ebdoJHG7zkfx0ajDTJIQc46Q2zu
-----END PRIVATE KEY-----
