Certificate:
    Data:
        Version: 3 (0x2)
        Serial Number: 3 (0x3)
    Signature Algorithm: sha256WithRSAEncryption
        Issuer: C=US, ST=California, L=Sacramento, O=Bloombox LLC, OU=Authority Operations, CN=Root Authority/emailAddress=info@bloombox.io
        Validity
            Not Before: Jul 31 18:24:22 2018 GMT
            Not After : Jul 28 18:24:22 2028 GMT
        Subject: C=US, ST=California, L=Sacramento, O=Bloombox LLC, OU=MONGO-CLIENT, CN=mdb-mon-instance-0/emailAddress=dev@bigchaindb.com
        Subject Public Key Info:
            Public Key Algorithm: rsaEncryption
                Public-Key: (4096 bit)
                Modulus:
                    00:d6:bd:c7:69:6a:f9:22:97:62:23:b6:eb:40:b6:
                    67:8f:2c:7f:14:4b:3c:85:7b:91:97:67:a6:42:88:
                    3a:34:f0:40:dc:34:59:aa:5c:48:c2:e4:2b:0c:f5:
                    6a:80:c8:de:ec:d5:f4:c4:9f:08:13:f2:ca:2b:8b:
                    35:3f:f4:75:15:b0:16:01:52:70:e4:e0:ca:60:5f:
                    8a:df:80:10:68:21:e3:78:76:12:ba:57:9e:30:d2:
                    a7:d6:70:e8:e0:37:6c:e9:98:af:c7:11:59:50:51:
                    6c:eb:1f:89:4a:4f:2c:e8:98:0a:d3:53:a4:0b:4a:
                    7a:3e:9f:a7:37:3d:5f:1b:e9:5c:45:eb:85:8d:bd:
                    5e:3d:84:4a:ad:25:2d:47:44:3b:15:74:aa:9f:88:
                    c0:2d:32:c3:7a:1d:98:4d:bd:bc:3d:ee:94:31:a8:
                    f5:85:aa:4b:42:2f:e9:fc:3f:f6:9f:e4:18:05:36:
                    a9:0c:e4:8c:6f:7d:84:81:28:ad:9c:ba:9d:96:51:
                    39:c4:b4:fb:4a:84:9e:7a:5b:57:f9:63:fc:06:7d:
                    a7:37:95:73:be:29:26:6f:f3:1b:5d:8c:78:11:c4:
                    7a:cd:a0:fc:e6:0d:13:ad:d5:cf:29:7f:1c:52:5e:
                    e8:ec:e4:4b:fa:84:a3:f3:6c:5b:a8:3a:c3:fd:31:
                    e5:61:49:1f:f6:45:b7:2d:33:86:c3:26:22:1f:00:
                    fa:9b:b9:cb:bb:64:37:44:d7:75:08:e0:b9:7b:2a:
                    22:5f:47:4f:56:43:b4:13:ab:ed:25:61:a1:65:87:
                    0c:3b:cc:49:7f:bc:a3:52:be:16:17:f2:48:26:8d:
                    c4:49:c3:0f:a4:ad:1f:d9:8f:da:d7:12:fc:44:91:
                    cb:49:06:7f:2c:b5:54:2d:41:7a:40:04:29:e2:ae:
                    0e:87:eb:69:fa:7d:40:66:42:5f:6f:80:9f:ce:47:
                    70:3e:cb:e7:4b:ca:ba:09:17:70:9d:6c:51:7a:a4:
                    0c:cf:6a:11:53:3b:ac:99:64:4e:b1:77:44:43:fb:
                    e3:22:02:4d:33:3d:f1:dd:45:6d:7b:63:c9:05:3e:
                    76:b0:dc:5d:4c:a8:7e:f1:02:21:29:9b:cb:a0:21:
                    d0:93:7c:01:b2:ec:4f:40:ab:8c:a7:31:81:ca:48:
                    ee:2b:da:39:15:42:87:1f:68:72:52:4f:a5:46:e3:
                    55:94:6c:cf:1d:10:19:2a:a8:28:0c:6f:05:db:8e:
                    c8:30:29:c0:64:e0:27:48:b8:22:f8:7b:83:c0:62:
                    08:f0:43:dc:2f:94:a2:3f:33:bf:58:5e:92:e2:77:
                    e9:4f:fd:da:a9:b9:02:9d:d3:42:d7:41:47:a4:94:
                    7a:72:c9
                Exponent: 65537 (0x10001)
        X509v3 extensions:
            X509v3 Basic Constraints: 
                CA:FALSE
            X509v3 Subject Key Identifier: 
                3C:65:AC:5E:8D:54:E3:08:E5:F4:7E:D4:3F:D5:90:31:7A:E9:79:70
            X509v3 Authority Key Identifier: 
                keyid:6A:1D:5C:42:62:3B:FD:38:0A:6A:F8:D0:40:81:08:03:32:0B:24:4E
                DirName:/C=US/ST=California/L=Sacramento/O=Bloombox LLC/OU=Authority Operations/CN=Root Authority/emailAddress=info@bloombox.io
                serial:EF:90:FE:D6:13:23:4F:A1

            X509v3 Extended Key Usage: 
                TLS Web Client Authentication
            X509v3 Key Usage: 
                Digital Signature
    Signature Algorithm: sha256WithRSAEncryption
         22:e5:28:05:48:6e:42:c7:a1:89:87:89:2b:47:e6:02:92:25:
         98:d7:97:6f:4f:5f:7b:a5:be:e2:5c:d6:e5:ee:74:1d:1b:9f:
         45:75:d8:12:bd:b6:6c:9f:24:ac:2b:02:73:b5:4b:9c:3f:57:
         bf:d6:55:da:6f:b0:a3:ce:6d:a7:ac:9b:f4:15:64:77:06:7f:
         c4:4b:cf:2c:87:53:19:0f:f9:06:ff:4f:b7:14:fc:1b:c7:6d:
         62:6b:42:70:79:f3:64:64:2d:a0:15:6e:ea:7e:c3:ef:dc:86:
         10:11:d8:b5:06:5f:ee:37:0f:ad:36:6e:d6:da:ac:5e:52:82:
         e1:79:af:a3:8f:ee:79:4d:57:e9:5a:b4:67:0f:c8:be:74:12:
         51:b5:33:cd:a2:92:70:3e:2e:30:16:df:35:1b:c6:be:a8:74:
         76:81:c8:df:ff:2a:9d:73:09:23:75:a5:db:95:a3:a8:0f:6b:
         ef:79:0d:7b:2a:7b:88:ad:0f:aa:62:50:7c:94:27:36:f5:9d:
         7e:30:61:9b:a6:51:5c:4c:6c:71:e9:cb:b0:9b:d8:a2:a9:b5:
         f3:29:a1:9c:6a:08:53:96:eb:d9:4a:4c:3b:62:46:1d:da:34:
         61:7f:8e:90:c1:b7:83:cd:ad:5d:1e:98:96:3e:c1:4f:a5:f6:
         49:09:ec:c7:78:ce:e8:a6:61:51:a3:7a:cb:dd:a3:7f:4d:0a:
         34:ab:23:c9:cc:e7:42:24:e7:a3:13:70:81:48:c5:2b:74:cb:
         e8:45:b5:52:93:16:fa:f2:30:ea:27:82:9d:30:a4:2a:f9:d5:
         09:bd:30:2c:5b:15:93:62:ae:36:c5:d8:43:31:a3:06:fb:32:
         94:54:b1:48:d1:58:a5:51:16:9a:15:6f:b4:41:94:74:46:33:
         55:d8:ce:8f:cc:54:78:d6:1d:d1:ae:a2:0e:c6:6c:ea:69:03:
         bf:43:19:a4:9d:e5:17:1b:e1:4f:f1:19:a6:7c:46:aa:cf:c9:
         fb:07:89:60:b9:44:13:03:f4:e0:4a:3b:e4:21:b7:e3:4f:f4:
         2b:74:ec:d0:0c:3e:d3:0e:96:2b:97:c3:3c:49:01:b9:39:00:
         8e:18:9b:da:47:43:80:6a:ec:3d:7d:87:aa:36:09:9a:12:90:
         1e:76:ff:a6:45:98:c4:75:a8:a4:07:2d:82:40:4d:e0:47:03:
         d4:5f:a3:78:82:df:3a:b6:c5:93:58:0d:de:30:47:d7:e0:45:
         aa:3a:fb:63:d1:6d:20:95:d8:d1:d3:97:3d:04:b2:c5:94:af:
         68:62:be:a3:da:32:a8:a7:63:86:15:a2:d4:59:fa:64:35:90:
         fb:e6:7d:11:87:3d:0c:3c
-----BEGIN CERTIFICATE-----
MIIG+jCCBOKgAwIBAgIBAzANBgkqhkiG9w0BAQsFADCBpzELMAkGA1UEBhMCVVMx
EzARBgNVBAgMCkNhbGlmb3JuaWExEzARBgNVBAcMClNhY3JhbWVudG8xFTATBgNV
BAoMDEJsb29tYm94IExMQzEdMBsGA1UECwwUQXV0aG9yaXR5IE9wZXJhdGlvbnMx
FzAVBgNVBAMMDlJvb3QgQXV0aG9yaXR5MR8wHQYJKoZIhvcNAQkBFhBpbmZvQGJs
b29tYm94LmlvMB4XDTE4MDczMTE4MjQyMloXDTI4MDcyODE4MjQyMlowgaUxCzAJ
BgNVBAYTAlVTMRMwEQYDVQQIDApDYWxpZm9ybmlhMRMwEQYDVQQHDApTYWNyYW1l
bnRvMRUwEwYDVQQKDAxCbG9vbWJveCBMTEMxFTATBgNVBAsMDE1PTkdPLUNMSUVO
VDEbMBkGA1UEAwwSbWRiLW1vbi1pbnN0YW5jZS0wMSEwHwYJKoZIhvcNAQkBFhJk
ZXZAYmlnY2hhaW5kYi5jb20wggIiMA0GCSqGSIb3DQEBAQUAA4ICDwAwggIKAoIC
AQDWvcdpavkil2IjtutAtmePLH8USzyFe5GXZ6ZCiDo08EDcNFmqXEjC5CsM9WqA
yN7s1fTEnwgT8sorizU/9HUVsBYBUnDk4MpgX4rfgBBoIeN4dhK6V54w0qfWcOjg
N2zpmK/HEVlQUWzrH4lKTyzomArTU6QLSno+n6c3PV8b6VxF64WNvV49hEqtJS1H
RDsVdKqfiMAtMsN6HZhNvbw97pQxqPWFqktCL+n8P/af5BgFNqkM5IxvfYSBKK2c
up2WUTnEtPtKhJ56W1f5Y/wGfac3lXO+KSZv8xtdjHgRxHrNoPzmDROt1c8pfxxS
Xujs5Ev6hKPzbFuoOsP9MeVhSR/2RbctM4bDJiIfAPqbucu7ZDdE13UI4Ll7KiJf
R09WQ7QTq+0lYaFlhww7zEl/vKNSvhYX8kgmjcRJww+krR/Zj9rXEvxEkctJBn8s
tVQtQXpABCnirg6H62n6fUBmQl9vgJ/OR3A+y+dLyroJF3CdbFF6pAzPahFTO6yZ
ZE6xd0RD++MiAk0zPfHdRW17Y8kFPnaw3F1MqH7xAiEpm8ugIdCTfAGy7E9Aq4yn
MYHKSO4r2jkVQocfaHJST6VG41WUbM8dEBkqqCgMbwXbjsgwKcBk4CdIuCL4e4PA
YgjwQ9wvlKI/M79YXpLid+lP/dqpuQKd00LXQUeklHpyyQIDAQABo4IBLzCCASsw
CQYDVR0TBAIwADAdBgNVHQ4EFgQUPGWsXo1U4wjl9H7UP9WQMXrpeXAwgdwGA1Ud
IwSB1DCB0YAUah1cQmI7/TgKavjQQIEIAzILJE6hga2kgaowgacxCzAJBgNVBAYT
AlVTMRMwEQYDVQQIDApDYWxpZm9ybmlhMRMwEQYDVQQHDApTYWNyYW1lbnRvMRUw
EwYDVQQKDAxCbG9vbWJveCBMTEMxHTAbBgNVBAsMFEF1dGhvcml0eSBPcGVyYXRp
b25zMRcwFQYDVQQDDA5Sb290IEF1dGhvcml0eTEfMB0GCSqGSIb3DQEJARYQaW5m
b0BibG9vbWJveC5pb4IJAO+Q/tYTI0+hMBMGA1UdJQQMMAoGCCsGAQUFBwMCMAsG
A1UdDwQEAwIHgDANBgkqhkiG9w0BAQsFAAOCAgEAIuUoBUhuQsehiYeJK0fmApIl
mNeXb09fe6W+4lzW5e50HRufRXXYEr22bJ8krCsCc7VLnD9Xv9ZV2m+wo85tp6yb
9BVkdwZ/xEvPLIdTGQ/5Bv9PtxT8G8dtYmtCcHnzZGQtoBVu6n7D79yGEBHYtQZf
7jcPrTZu1tqsXlKC4Xmvo4/ueU1X6Vq0Zw/IvnQSUbUzzaKScD4uMBbfNRvGvqh0
doHI3/8qnXMJI3Wl25WjqA9r73kNeyp7iK0PqmJQfJQnNvWdfjBhm6ZRXExscenL
sJvYoqm18ymhnGoIU5br2UpMO2JGHdo0YX+OkMG3g82tXR6Ylj7BT6X2SQnsx3jO
6KZhUaN6y92jf00KNKsjycznQiTnoxNwgUjFK3TL6EW1UpMW+vIw6ieCnTCkKvnV
Cb0wLFsVk2KuNsXYQzGjBvsylFSxSNFYpVEWmhVvtEGUdEYzVdjOj8xUeNYd0a6i
DsZs6mkDv0MZpJ3lFxvhT/EZpnxGqs/J+weJYLlEEwP04Eo75CG340/0K3Ts0Aw+
0w6WK5fDPEkBuTkAjhib2kdDgGrsPX2HqjYJmhKQHnb/pkWYxHWopActgkBN4EcD
1F+jeILfOrbFk1gN3jBH1+BFqjr7Y9FtIJXY0dOXPQSyxZSvaGK+o9oyqKdjhhWi
1Fn6ZDWQ++Z9EYc9DDw=
-----END CERTIFICATE-----
-----BEGIN PRIVATE KEY-----
MIIJQgIBADANBgkqhkiG9w0BAQEFAASCCSwwggkoAgEAAoICAQDWvcdpavkil2Ij
tutAtmePLH8USzyFe5GXZ6ZCiDo08EDcNFmqXEjC5CsM9WqAyN7s1fTEnwgT8sor
izU/9HUVsBYBUnDk4MpgX4rfgBBoIeN4dhK6V54w0qfWcOjgN2zpmK/HEVlQUWzr
H4lKTyzomArTU6QLSno+n6c3PV8b6VxF64WNvV49hEqtJS1HRDsVdKqfiMAtMsN6
HZhNvbw97pQxqPWFqktCL+n8P/af5BgFNqkM5IxvfYSBKK2cup2WUTnEtPtKhJ56
W1f5Y/wGfac3lXO+KSZv8xtdjHgRxHrNoPzmDROt1c8pfxxSXujs5Ev6hKPzbFuo
OsP9MeVhSR/2RbctM4bDJiIfAPqbucu7ZDdE13UI4Ll7KiJfR09WQ7QTq+0lYaFl
hww7zEl/vKNSvhYX8kgmjcRJww+krR/Zj9rXEvxEkctJBn8stVQtQXpABCnirg6H
62n6fUBmQl9vgJ/OR3A+y+dLyroJF3CdbFF6pAzPahFTO6yZZE6xd0RD++MiAk0z
PfHdRW17Y8kFPnaw3F1MqH7xAiEpm8ugIdCTfAGy7E9Aq4ynMYHKSO4r2jkVQocf
aHJST6VG41WUbM8dEBkqqCgMbwXbjsgwKcBk4CdIuCL4e4PAYgjwQ9wvlKI/M79Y
XpLid+lP/dqpuQKd00LXQUeklHpyyQIDAQABAoICACYt77pqbokb6TL4XrNOuvLV
snJlPgltguEsaH8DwXWQEbgVBqwnZDhiYNUY/SqQjDIHiFE9BS6myBMd2QXZ7MdC
W2c4xSGsZc7krcg2+LPK8qqEM6g108ZSbczOnljfAdo2b2oxR3PkRj03ii1QDmf8
QFB6Wnw3baycrhpAKxzHTMSRr1kYBh1h2/UU2wwEsYyLBZr/sUtX7zFS+bU4urM4
K9j4dU6ijGbkJfHXXX3oC+1BXqUQLXfVFS3xkYyAEWycXG0A0HzbP2H5w5ZvlGuD
A6v6Qm3Y2yCkVIU5aE+gY0UUDmLIiGsrzH1QQDTU8wzLOkb8NjodVd5/NEFcEa/6
6HWqrny7vIncI/sLI0ycpeTC4cmnoIc2WSTAGcZwbQnIkHPdrDkAaqKrTIUNUoOi
GtRTKXlYla9ScqSBJxVpgqPgZCpttWTjkWBA82Uacm2tL4Em84Ri4imTD8Q02Kmf
y5//BDYgNmcWYFrn9NPdBZlUav8TAeHU9viglIt4iJ7HY+Uoad5iLz3IiX+Yr2F7
hS4TKAZTETD0QIbJHPuZ75VL8pVNjfEcv4dy+Bfa1mwUqNkIOypW6hqV5Bv0E/nC
eF/qy2mF/swl29hz1TXh+VEWBU81PtyI40CIpTgTiTLvf+W3bbG1RN58TUE2qq5r
qOP4W1bcXV7QC08zTudBAoIBAQDyi5WJsoyJqjoJ0O76idT45OjI+V/iHkjVM9+G
UfFlU52Zv4OFHRl6UDfuEOPWF60plNHawRKD7JAhZKZxhbqCE4ZCAr08zeWbbqVM
aPG+Od+znf6qA5/SbKS54WPWhu2PAOfw0JkCOlm2TSm7parz48Rb7Rweb40u6TxA
12xAlGfHIp7QEmbfUcZ/NAqIavX1dD+siprVuuLjK221KjXvGIJuZLeO1VWcBqrx
va+83sOrl3e8EXqnQ/BZStE27+jAoOznEreWNEUGO/odymcqCv5NVD/syK0c8RVm
FbN4Ce0KzNv2ZLCrYyNt0boBP7EcRZCHG+qmI6+hnja5uHwFAoIBAQDip1kFC2hI
SNvhZVSaeFb4CVRNlgczguRz6vSjDj4G0TnQqYCjQGOB/0rR2/ZI0Cot2biPt4aS
f58IaJ/7xmi0foqaY2twEPYZHQRYi67tzCxX3/ubm1WcpyZ78KggVX7XoxT+XDvD
qTYYKbQzHfNo21zXs3leqV4z7sF7BtQXbBaKXxAHXaHTU06xwDFtUswzN0vYnvsn
bM4DKZ1HFOdlGAV0rSC8Jttz8xJJl+P4JWDjtjGtZdsQ7TPOD//RcBOO12c2CrEz
DeQJRXwL21yu7dBqH5J7t4FVxdlUwRU/Ca4MywQDDc/aCKLxYBpndhkSz7lJ0foa
fFPilMsgqlr1AoIBAQCd1egCK4b5LyWFrclWkMtfDNfPsTiMVVjgJVmYd0q3vaoZ
m19jCITD69/5tFQPxmiRXp8R1ALQhulkUbNevL+aVkpQOqgbIYIBnAdFqiVmvRKu
OGq5CJLAxKKNs/bcbAG7xcMqGxT3NjGbSKuXyT9uZxIpICvkQoOFu5HSQF3ZyLmg
BQ+EJ/V57iVWMe+IxtI4YOXuymPoIi3z1xcVhdqDNVfrru8kq/+CAXTMy7vJFM4Q
pAjvAhDnOHb4JI/xSD4W3KJN3QhLXshsPiuNp2FrIqxKdkEDPbQp2VkrjYO04gC3
voiF1xCA94retFRu65u94icjRS913lM0wVirkzphAoIBAEffZV0yJtl1MTSiW1e4
fWueGbuYraPqB+OyR+1E4OpsgnbmqUIbcvKQL/uoUsr4J8fuWJZKTkQ6cAXMl57R
ZfaGghE/IZyh5EhGaVBiyw/hRNaA0lqfwWAxqQR4ZfgK5HQg5NFcEh+TkvHKl7f1
8W/4z9IeuYgJETRKq9QFcFAVGHi8eGq9iElpC3VWStYuAU7kZArHL0FrQVDDa3pU
6KOoIGLFW7IOaFy2YcAwiDvyLm1HIy2nNPaDIYBglnClp64OJE6AyXw1FXDTNejU
oOlfxE1CwcK1iC/Y03gK2l/pA+ZOonENejHbtz/vh6/zRTQv5sO/8B1h+3/ISzmK
i9kCggEAXCMgBwgeuYL803pYLha7yF/kmvzs8a7B0isG/eRJ6BqdVeA69Z1XjYin
1+rU0Jw6QqoquUQo9nYOnr22StGvD2hWI3ANMPoy9GwDnhHU/slUpMcD/IWwYpMc
BVC0dilP2K2sM8l0SOUyBS9CqYMSeU9uGiRASko8J4EmeLrvT5bkNOCyNnI/kjDy
KqCzAxJqOWUFFPFiTJXHe+YDXWJvOanU5V1T+e2XSYKEClDLa/FDXE1DHcXj3j8A
wSltzlLeGRujhi2oJ+w+h+0wyTWwz1nwM+UlTZMebu2tjjTBIo9azz0bwejd3mur
OKsVpp0Pm3JOgjMpV6gjpCOXnE/9QQ==
-----END PRIVATE KEY-----
