Certificate:
    Data:
        Version: 3 (0x2)
        Serial Number: 2 (0x2)
    Signature Algorithm: sha256WithRSAEncryption
        Issuer: C=US, ST=California, L=Sacramento, O=Bloombox LLC, OU=Authority Operations, CN=Root Authority/emailAddress=info@bloombox.io
        Validity
            Not Before: Jul 30 23:58:10 2018 GMT
            Not After : Jul 27 23:58:10 2028 GMT
        Subject: C=US, ST=California, L=Sacramento, O=Bloombox LLC, OU=MONGO-CLIENT, CN=bdb-instance-0/emailAddress=dev@bigchaindb.com
        Subject Public Key Info:
            Public Key Algorithm: rsaEncryption
                Public-Key: (4096 bit)
                Modulus:
                    00:f0:46:0e:e8:fc:d4:3e:bb:08:82:24:51:b4:65:
                    a3:74:fd:95:cb:1f:db:f7:2e:ec:58:42:2a:e8:94:
                    1c:ba:ce:ae:14:78:4c:d2:96:60:83:4c:8f:dd:c1:
                    73:17:2a:04:28:9f:76:bb:dd:fa:e0:74:4e:18:59:
                    b6:e8:07:17:b3:e6:d1:e7:6c:78:29:cc:75:c9:85:
                    80:2d:cd:20:81:19:3a:65:3c:9f:1b:fd:fc:8d:0c:
                    ba:4a:2d:16:72:07:df:7d:7a:e9:c4:36:b6:c9:6f:
                    4b:95:72:ec:57:bd:2e:6d:d7:70:83:55:a6:0b:b9:
                    20:7b:e2:45:d3:27:99:1f:01:89:d5:77:c1:c9:03:
                    d9:5b:32:19:a3:44:65:ba:47:8a:d8:9b:1e:f0:28:
                    76:3c:c5:3b:7e:91:91:17:33:d4:e8:ad:ab:2e:e0:
                    43:73:b9:f5:b4:1a:ee:df:69:96:5b:b3:0d:d6:4c:
                    c9:be:80:d1:b0:40:51:ca:85:50:a6:1d:ef:8d:8b:
                    53:7e:6e:41:3e:af:34:8f:d5:22:60:b8:c9:10:cb:
                    ae:7d:92:69:04:80:0c:6b:c2:77:be:68:70:eb:e5:
                    40:82:b9:81:d5:21:6b:b0:b4:c6:e0:24:27:d8:22:
                    0e:87:9e:d0:a5:2f:cb:fb:be:a7:9f:01:e9:f5:1f:
                    c7:c9:87:19:c3:59:08:92:fa:cc:eb:8c:70:cd:f8:
                    9b:b8:f9:da:53:5f:75:97:a4:9c:29:ae:2c:71:22:
                    13:15:01:75:af:4c:ef:ea:40:7f:26:1a:24:17:19:
                    7d:99:4c:fe:be:6c:9b:be:1e:9e:08:40:bc:0b:f3:
                    95:b5:8f:a6:32:0e:a7:96:59:87:02:45:2c:b1:71:
                    e8:5c:96:aa:5f:c4:74:09:c9:9e:be:d0:9d:7f:bf:
                    b2:8f:99:24:79:5c:53:4b:ab:5c:8a:bc:a6:d9:26:
                    34:0d:3f:7a:49:e7:4d:07:fe:dd:ff:79:d6:9b:15:
                    a6:8a:2e:7f:5b:cd:f1:22:cd:76:cc:48:bc:a8:fb:
                    b8:94:fe:78:c4:2e:b3:3a:21:70:22:b0:78:0a:7f:
                    9e:53:64:eb:53:61:7e:8b:17:80:17:a7:7c:08:96:
                    11:2f:bf:a6:ad:6e:54:f7:1c:ce:02:b4:68:e5:60:
                    40:8c:e6:54:f9:90:09:30:71:d8:7e:d4:46:a9:15:
                    65:50:2f:df:ea:fb:51:b6:9e:87:d0:6c:c2:c0:95:
                    7b:66:16:b6:c8:d4:31:8d:06:b6:52:3d:c8:ca:f4:
                    34:04:1f:b9:df:f2:c5:2a:75:79:98:37:af:4f:35:
                    1c:9a:88:5e:bc:c4:c6:94:e1:0d:55:d9:a0:bc:e0:
                    58:f1:11
                Exponent: 65537 (0x10001)
        X509v3 extensions:
            X509v3 Basic Constraints: 
                CA:FALSE
            X509v3 Subject Key Identifier: 
                9B:48:A9:C4:1E:6A:C4:60:79:99:D5:9E:A3:88:BF:4D:8D:40:BF:3B
            X509v3 Authority Key Identifier: 
                keyid:1D:55:E4:9E:10:83:C6:01:CE:78:B5:58:BC:B2:3D:85:AD:88:59:66
                DirName:/C=US/ST=California/L=Sacramento/O=Bloombox LLC/OU=Authority Operations/CN=Root Authority/emailAddress=info@bloombox.io
                serial:CA:86:92:FB:2E:7F:BF:29

            X509v3 Extended Key Usage: 
                TLS Web Client Authentication
            X509v3 Key Usage: 
                Digital Signature
    Signature Algorithm: sha256WithRSAEncryption
         24:2a:15:7e:01:b1:ba:d5:a9:bc:45:7d:1d:89:c1:77:25:d4:
         1d:bf:1a:4b:24:47:09:6e:ef:30:b0:41:3d:a6:c6:75:f3:f5:
         e1:47:33:95:69:71:3a:53:b1:05:71:26:83:b3:b6:2a:78:b2:
         82:52:ee:d8:95:4f:ba:78:1d:48:62:de:c4:03:8f:a5:dd:9f:
         9a:2c:db:13:ba:a3:df:81:a5:74:5f:c4:61:5a:35:41:7c:3f:
         33:b4:31:f8:43:ed:f5:48:dd:e5:48:09:08:34:76:09:ca:42:
         5d:5b:c5:2e:62:de:87:f1:bf:55:f3:89:07:95:9c:ff:d4:c8:
         ce:72:29:f7:04:d2:f2:6b:41:9f:ac:69:3b:d8:65:a4:8d:1e:
         04:2e:cc:06:43:b3:c2:35:61:8d:56:4d:27:d7:2a:3e:3b:ea:
         ea:c9:3f:31:3c:a1:18:ca:0c:5e:48:4e:be:5e:70:75:e7:5f:
         2a:b9:44:d8:c4:5e:45:2c:d3:d7:5e:b8:e5:74:81:83:67:ed:
         12:3d:23:c1:f2:9e:e6:43:56:37:a9:ae:b0:1c:98:8c:bb:f1:
         67:67:11:4d:02:f7:71:3a:bb:83:d3:f2:19:69:e1:e5:5e:d7:
         7f:59:91:0e:e3:d8:aa:f6:1a:26:bb:03:a8:82:13:aa:2f:e6:
         68:f9:ed:b3:06:96:33:05:4a:31:bb:e4:86:d1:e9:9a:ac:26:
         22:5b:d7:c0:75:76:e5:34:72:da:ec:ba:58:af:5c:f6:c4:87:
         9d:81:82:3b:b4:b9:a8:e0:95:3c:d8:03:d1:d8:a9:1f:50:59:
         4a:00:50:01:72:c2:23:89:c6:8b:74:b0:00:fd:63:44:52:c5:
         7b:6f:ac:98:3d:b2:43:77:43:8d:8a:ff:ab:90:be:e9:d2:ca:
         84:83:7f:1b:42:45:ab:0c:7d:8e:cb:43:08:e7:25:20:da:cf:
         18:d0:09:99:a1:86:d1:a4:98:47:00:5d:5d:40:09:2e:9f:54:
         ad:9f:71:a4:0b:d3:fe:17:42:23:8f:cb:5e:b8:21:5c:3d:3a:
         68:cc:02:3e:75:36:fa:f9:d1:76:0d:cd:6f:0e:1e:72:88:ff:
         24:9c:3e:44:56:43:6e:d6:ae:fe:a7:02:a3:76:c8:de:0e:bb:
         9c:f6:75:7c:cd:b0:5f:bf:47:9a:0d:d9:43:21:14:20:25:66:
         47:1d:c4:4e:67:67:84:4f:fd:43:a7:bd:42:f7:99:fa:fd:8a:
         00:ea:ce:b0:14:c8:ce:5f:4c:3a:30:3b:2a:c1:4e:b3:66:e2:
         13:29:5b:42:96:42:49:ad:de:54:4c:0c:71:70:a3:25:30:9b:
         51:01:5f:54:eb:05:0b:f2
-----BEGIN CERTIFICATE-----
MIIG9jCCBN6gAwIBAgIBAjANBgkqhkiG9w0BAQsFADCBpzELMAkGA1UEBhMCVVMx
EzARBgNVBAgMCkNhbGlmb3JuaWExEzARBgNVBAcMClNhY3JhbWVudG8xFTATBgNV
BAoMDEJsb29tYm94IExMQzEdMBsGA1UECwwUQXV0aG9yaXR5IE9wZXJhdGlvbnMx
FzAVBgNVBAMMDlJvb3QgQXV0aG9yaXR5MR8wHQYJKoZIhvcNAQkBFhBpbmZvQGJs
b29tYm94LmlvMB4XDTE4MDczMDIzNTgxMFoXDTI4MDcyNzIzNTgxMFowgaExCzAJ
BgNVBAYTAlVTMRMwEQYDVQQIDApDYWxpZm9ybmlhMRMwEQYDVQQHDApTYWNyYW1l
bnRvMRUwEwYDVQQKDAxCbG9vbWJveCBMTEMxFTATBgNVBAsMDE1PTkdPLUNMSUVO
VDEXMBUGA1UEAwwOYmRiLWluc3RhbmNlLTAxITAfBgkqhkiG9w0BCQEWEmRldkBi
aWdjaGFpbmRiLmNvbTCCAiIwDQYJKoZIhvcNAQEBBQADggIPADCCAgoCggIBAPBG
Duj81D67CIIkUbRlo3T9lcsf2/cu7FhCKuiUHLrOrhR4TNKWYINMj93BcxcqBCif
drvd+uB0ThhZtugHF7Pm0edseCnMdcmFgC3NIIEZOmU8nxv9/I0MukotFnIH3316
6cQ2tslvS5Vy7Fe9Lm3XcINVpgu5IHviRdMnmR8BidV3wckD2VsyGaNEZbpHitib
HvAodjzFO36RkRcz1Oitqy7gQ3O59bQa7t9plluzDdZMyb6A0bBAUcqFUKYd742L
U35uQT6vNI/VImC4yRDLrn2SaQSADGvCd75ocOvlQIK5gdUha7C0xuAkJ9giDoee
0KUvy/u+p58B6fUfx8mHGcNZCJL6zOuMcM34m7j52lNfdZeknCmuLHEiExUBda9M
7+pAfyYaJBcZfZlM/r5sm74enghAvAvzlbWPpjIOp5ZZhwJFLLFx6FyWql/EdAnJ
nr7QnX+/so+ZJHlcU0urXIq8ptkmNA0/eknnTQf+3f951psVpoouf1vN8SLNdsxI
vKj7uJT+eMQuszohcCKweAp/nlNk61NhfosXgBenfAiWES+/pq1uVPcczgK0aOVg
QIzmVPmQCTBx2H7URqkVZVAv3+r7Ubaeh9BswsCVe2YWtsjUMY0GtlI9yMr0NAQf
ud/yxSp1eZg3r081HJqIXrzExpThDVXZoLzgWPERAgMBAAGjggEvMIIBKzAJBgNV
HRMEAjAAMB0GA1UdDgQWBBSbSKnEHmrEYHmZ1Z6jiL9NjUC/OzCB3AYDVR0jBIHU
MIHRgBQdVeSeEIPGAc54tVi8sj2FrYhZZqGBraSBqjCBpzELMAkGA1UEBhMCVVMx
EzARBgNVBAgMCkNhbGlmb3JuaWExEzARBgNVBAcMClNhY3JhbWVudG8xFTATBgNV
BAoMDEJsb29tYm94IExMQzEdMBsGA1UECwwUQXV0aG9yaXR5IE9wZXJhdGlvbnMx
FzAVBgNVBAMMDlJvb3QgQXV0aG9yaXR5MR8wHQYJKoZIhvcNAQkBFhBpbmZvQGJs
b29tYm94LmlvggkAyoaS+y5/vykwEwYDVR0lBAwwCgYIKwYBBQUHAwIwCwYDVR0P
BAQDAgeAMA0GCSqGSIb3DQEBCwUAA4ICAQAkKhV+AbG61am8RX0dicF3JdQdvxpL
JEcJbu8wsEE9psZ18/XhRzOVaXE6U7EFcSaDs7YqeLKCUu7YlU+6eB1IYt7EA4+l
3Z+aLNsTuqPfgaV0X8RhWjVBfD8ztDH4Q+31SN3lSAkINHYJykJdW8UuYt6H8b9V
84kHlZz/1MjOcin3BNLya0GfrGk72GWkjR4ELswGQ7PCNWGNVk0n1yo+O+rqyT8x
PKEYygxeSE6+XnB1518quUTYxF5FLNPXXrjldIGDZ+0SPSPB8p7mQ1Y3qa6wHJiM
u/FnZxFNAvdxOruD0/IZaeHlXtd/WZEO49iq9homuwOoghOqL+Zo+e2zBpYzBUox
u+SG0emarCYiW9fAdXblNHLa7LpYr1z2xIedgYI7tLmo4JU82APR2KkfUFlKAFAB
csIjicaLdLAA/WNEUsV7b6yYPbJDd0ONiv+rkL7p0sqEg38bQkWrDH2Oy0MI5yUg
2s8Y0AmZoYbRpJhHAF1dQAkun1Stn3GkC9P+F0Ijj8teuCFcPTpozAI+dTb6+dF2
Dc1vDh5yiP8knD5EVkNu1q7+pwKjdsjeDruc9nV8zbBfv0eaDdlDIRQgJWZHHcRO
Z2eET/1Dp71C95n6/YoA6s6wFMjOX0w6MDsqwU6zZuITKVtClkJJrd5UTAxxcKMl
MJtRAV9U6wUL8g==
-----END CERTIFICATE-----
